00000000  EB58              jmp short 0x5a
00000002  90                nop
00000003  90                nop
00000004  90                nop
00000005  90                nop
00000006  90                nop
00000007  90                nop
00000008  90                nop
00000009  90                nop
0000000A  90                nop
0000000B  90                nop
0000000C  90                nop
0000000D  90                nop
0000000E  90                nop
0000000F  90                nop
00000010  90                nop
00000011  90                nop
00000012  90                nop
00000013  90                nop
00000014  90                nop
00000015  90                nop
00000016  90                nop
00000017  90                nop
00000018  90                nop
00000019  90                nop
0000001A  90                nop
0000001B  90                nop
0000001C  90                nop
0000001D  90                nop
0000001E  90                nop
0000001F  90                nop
00000020  90                nop
00000021  90                nop
00000022  90                nop
00000023  90                nop
00000024  90                nop
00000025  90                nop
00000026  90                nop
00000027  90                nop
00000028  90                nop
00000029  90                nop
0000002A  90                nop
0000002B  90                nop
0000002C  90                nop
0000002D  90                nop
0000002E  90                nop
0000002F  90                nop
00000030  90                nop
00000031  90                nop
00000032  90                nop
00000033  90                nop
00000034  90                nop
00000035  90                nop
00000036  90                nop
00000037  90                nop
00000038  90                nop
00000039  90                nop
0000003A  90                nop
0000003B  90                nop
0000003C  90                nop
0000003D  90                nop
0000003E  90                nop
0000003F  90                nop
00000040  90                nop
00000041  90                nop
00000042  90                nop
00000043  90                nop
00000044  90                nop
00000045  90                nop
00000046  90                nop
00000047  90                nop
00000048  90                nop
00000049  90                nop
0000004A  90                nop
0000004B  90                nop
0000004C  90                nop
0000004D  90                nop
0000004E  90                nop
0000004F  90                nop
00000050  90                nop
00000051  90                nop
00000052  90                nop
00000053  90                nop
00000054  90                nop
00000055  90                nop
00000056  90                nop
00000057  90                nop
00000058  90                nop
00000059  90                nop
0000005A  FA                cli
0000005B  B80000            mov ax,0x0
0000005E  8ED8              mov ds,ax
00000060  8EC0              mov es,ax
00000062  8ED0              mov ss,ax
00000064  BC007C            mov sp,0x7c00
00000067  FB                sti
00000068  8816B87C          mov [0x7cb8],dl
0000006C  68997C            push word 0x7c99
0000006F  E84E00            call 0xc0
00000072  83C402            add sp,byte +0x2
00000075  BB0F00            mov bx,0xf
00000078  B9007E            mov cx,0x7e00
0000007B  51                push cx
0000007C  53                push bx
0000007D  68B87C            push word 0x7cb8
00000080  E89D00            call 0x120
00000083  83C406            add sp,byte +0x6
00000086  39D8              cmp ax,bx
00000088  740C              jz 0x96
0000008A  68A67C            push word 0x7ca6
0000008D  E83000            call 0xc0
00000090  83C402            add sp,byte +0x2
00000093  E84B00            call 0xe1
00000096  E92C06            jmp 0x6c5
00000099  42                inc dx
0000009A  6F                outsw
0000009B  6F                outsw
0000009C  7469              jz 0x107
0000009E  6E                outsb
0000009F  672E2E2E0A0D0045  or cl,[dword cs:0x72724500]
         -7272
000000A9  6F                outsw
000000AA  723A              jc 0xe6
000000AC  7365              jnc 0x113
000000AE  63746F            arpl [si+0x6f],si
000000B1  7220              jc 0xd3
000000B3  7265              jc 0x11a
000000B5  61                popa
000000B6  640000            add [fs:bx+si],al
000000B9  0000              add [bx+si],al
000000BB  0000              add [bx+si],al
000000BD  0002              add [bp+si],al
000000BF  005589            add [di-0x77],dl
000000C2  E550              in ax,0x50
000000C4  53                push bx
000000C5  56                push si
000000C6  9C                pushf
000000C7  8B7604            mov si,[bp+0x4]
000000CA  B40E              mov ah,0xe
000000CC  BB0000            mov bx,0x0
000000CF  FC                cld
000000D0  AC                lodsb
000000D1  3C00              cmp al,0x0
000000D3  7404              jz 0xd9
000000D5  CD10              int 0x10
000000D7  EBF7              jmp short 0xd0
000000D9  9D                popf
000000DA  5E                pop si
000000DB  5B                pop bx
000000DC  58                pop ax
000000DD  89EC              mov sp,bp
000000DF  5D                pop bp
000000E0  C3                ret
000000E1  68FD7C            push word 0x7cfd
000000E4  E8D9FF            call 0xc0
000000E7  83C402            add sp,byte +0x2
000000EA  B410              mov ah,0x10
000000EC  CD16              int 0x16
000000EE  3C20              cmp al,0x20
000000F0  75F8              jnz 0xea
000000F2  681B7D            push word 0x7d1b
000000F5  E8C8FF            call 0xc0
000000F8  83C402            add sp,byte +0x2
000000FB  CD19              int 0x19
000000FD  0A0D              or cl,[di]
000000FF  50                push ax
00000100  7573              jnz 0x175
00000102  682053            push word 0x5320
00000105  50                push ax
00000106  41                inc cx
00000107  43                inc bx
00000108  45                inc bp
00000109  204B65            and [bp+di+0x65],cl
0000010C  7920              jns 0x12e
0000010E  746F              jz 0x17f
00000110  205265            and [bp+si+0x65],dl
00000113  626F6F            bound bp,[bx+0x6f]
00000116  742E              jz 0x146
00000118  2E2E000A          add [cs:bp+si],cl
0000011C  0D0A0D            or ax,0xd0a
0000011F  005589            add [di-0x77],dl
00000122  E56A              in ax,0x6a
00000124  036A00            add bp,[bp+si+0x0]
00000127  53                push bx
00000128  51                push cx
00000129  52                push dx
0000012A  06                push es
0000012B  56                push si
0000012C  9C                pushf
0000012D  8B7604            mov si,[bp+0x4]
00000130  8A6C02            mov ch,[si+0x2]
00000133  8A4C03            mov cl,[si+0x3]
00000136  C0E106            shl cl,byte 0x6
00000139  0A4C06            or cl,[si+0x6]
0000013C  8A7404            mov dh,[si+0x4]
0000013F  8A14              mov dl,[si]
00000141  B80000            mov ax,0x0
00000144  8EC0              mov es,ax
00000146  8B5E08            mov bx,[bp+0x8]
00000149  8A4606            mov al,[bp+0x6]
0000014C  B402              mov ah,0x2
0000014E  CD13              int 0x13
00000150  7304              jnc 0x156
00000152  B000              mov al,0x0
00000154  EB0C              jmp short 0x162
00000156  3C00              cmp al,0x0
00000158  7508              jnz 0x162
0000015A  B80000            mov ax,0x0
0000015D  FF4EFE            dec word [bp-0x2]
00000160  75E7              jnz 0x149
00000162  B400              mov ah,0x0
00000164  9D                popf
00000165  5E                pop si
00000166  07                pop es
00000167  5A                pop dx
00000168  59                pop cx
00000169  5B                pop bx
0000016A  89EC              mov sp,bp
0000016C  5D                pop bp
0000016D  C3                ret
0000016E  0000              add [bx+si],al
00000170  0000              add [bx+si],al
00000172  0000              add [bx+si],al
00000174  0000              add [bx+si],al
00000176  0000              add [bx+si],al
00000178  0000              add [bx+si],al
0000017A  0000              add [bx+si],al
0000017C  0000              add [bx+si],al
0000017E  0000              add [bx+si],al
00000180  0000              add [bx+si],al
00000182  0000              add [bx+si],al
00000184  0000              add [bx+si],al
00000186  0000              add [bx+si],al
00000188  0000              add [bx+si],al
0000018A  0000              add [bx+si],al
0000018C  0000              add [bx+si],al
0000018E  0000              add [bx+si],al
00000190  0000              add [bx+si],al
00000192  0000              add [bx+si],al
00000194  0000              add [bx+si],al
00000196  0000              add [bx+si],al
00000198  0000              add [bx+si],al
0000019A  0000              add [bx+si],al
0000019C  0000              add [bx+si],al
0000019E  0000              add [bx+si],al
000001A0  0000              add [bx+si],al
000001A2  0000              add [bx+si],al
000001A4  0000              add [bx+si],al
000001A6  0000              add [bx+si],al
000001A8  0000              add [bx+si],al
000001AA  0000              add [bx+si],al
000001AC  0000              add [bx+si],al
000001AE  0000              add [bx+si],al
000001B0  0000              add [bx+si],al
000001B2  0000              add [bx+si],al
000001B4  0000              add [bx+si],al
000001B6  0000              add [bx+si],al
000001B8  0000              add [bx+si],al
000001BA  0000              add [bx+si],al
000001BC  0000              add [bx+si],al
000001BE  0000              add [bx+si],al
000001C0  0000              add [bx+si],al
000001C2  0000              add [bx+si],al
000001C4  0000              add [bx+si],al
000001C6  0000              add [bx+si],al
000001C8  0000              add [bx+si],al
000001CA  0000              add [bx+si],al
000001CC  0000              add [bx+si],al
000001CE  0000              add [bx+si],al
000001D0  0000              add [bx+si],al
000001D2  0000              add [bx+si],al
000001D4  0000              add [bx+si],al
000001D6  0000              add [bx+si],al
000001D8  0000              add [bx+si],al
000001DA  0000              add [bx+si],al
000001DC  0000              add [bx+si],al
000001DE  0000              add [bx+si],al
000001E0  0000              add [bx+si],al
000001E2  0000              add [bx+si],al
000001E4  0000              add [bx+si],al
000001E6  0000              add [bx+si],al
000001E8  0000              add [bx+si],al
000001EA  0000              add [bx+si],al
000001EC  0000              add [bx+si],al
000001EE  0000              add [bx+si],al
000001F0  0000              add [bx+si],al
000001F2  0000              add [bx+si],al
000001F4  0000              add [bx+si],al
000001F6  0000              add [bx+si],al
000001F8  0000              add [bx+si],al
000001FA  0000              add [bx+si],al
000001FC  0000              add [bx+si],al
000001FE  55                push bp
000001FF  AA                stosb
00000200  0000              add [bx+si],al
00000202  0000              add [bx+si],al
00000204  0000              add [bx+si],al
00000206  0000              add [bx+si],al
00000208  0000              add [bx+si],al
0000020A  0000              add [bx+si],al
0000020C  55                push bp
0000020D  89E5              mov bp,sp
0000020F  50                push ax
00000210  53                push bx
00000211  51                push cx
00000212  52                push dx
00000213  56                push si
00000214  57                push di
00000215  9C                pushf
00000216  8B4604            mov ax,[bp+0x4]
00000219  8B7606            mov si,[bp+0x6]
0000021C  8B4E08            mov cx,[bp+0x8]
0000021F  89F7              mov di,si
00000221  01CF              add di,cx
00000223  4F                dec di
00000224  8B5E0C            mov bx,[bp+0xc]
00000227  F7C30100          test bx,0x1
0000022B  7408              jz 0x235
0000022D  83F800            cmp ax,byte +0x0
00000230  7D03              jnl 0x235
00000232  83CB02            or bx,byte +0x2
00000235  F7C30200          test bx,0x2
00000239  7410              jz 0x24b
0000023B  83F800            cmp ax,byte +0x0
0000023E  7D07              jnl 0x247
00000240  F7D8              neg ax
00000242  C6042D            mov byte [si],0x2d
00000245  EB03              jmp short 0x24a
00000247  C6042B            mov byte [si],0x2b
0000024A  49                dec cx
0000024B  8B5E0A            mov bx,[bp+0xa]
0000024E  BA0000            mov dx,0x0
00000251  F7F3              div bx
00000253  89D6              mov si,dx
00000255  8A947E7E          mov dl,[si+0x7e7e]
00000259  8815              mov [di],dl
0000025B  4F                dec di
0000025C  83F800            cmp ax,byte +0x0
0000025F  E0ED              loopne 0x24e
00000261  83F900            cmp cx,byte +0x0
00000264  740D              jz 0x273
00000266  B020              mov al,0x20
00000268  837E0C04          cmp word [bp+0xc],byte +0x4
0000026C  7502              jnz 0x270
0000026E  B030              mov al,0x30
00000270  FD                std
00000271  F3AA              rep stosb
00000273  9D                popf
00000274  5F                pop di
00000275  5E                pop si
00000276  5A                pop dx
00000277  59                pop cx
00000278  5B                pop bx
00000279  58                pop ax
0000027A  89EC              mov sp,bp
0000027C  5D                pop bp
0000027D  C3                ret
0000027E  3031              xor [bx+di],dh
00000280  3233              xor dh,[bp+di]
00000282  3435              xor al,0x35
00000284  3637              ss aaa
00000286  3839              cmp [bx+di],bh
00000288  41                inc cx
00000289  42                inc dx
0000028A  43                inc bx
0000028B  44                inc sp
0000028C  45                inc bp
0000028D  46                inc si
0000028E  55                push bp
0000028F  89E5              mov bp,sp
00000291  6A03              push byte +0x3
00000293  53                push bx
00000294  51                push cx
00000295  06                push es
00000296  56                push si
00000297  57                push di
00000298  9C                pushf
00000299  8B7604            mov si,[bp+0x4]
0000029C  B80000            mov ax,0x0
0000029F  8EC0              mov es,ax
000002A1  89C7              mov di,ax
000002A3  B408              mov ah,0x8
000002A5  8A14              mov dl,[si]
000002A7  CD13              int 0x13
000002A9  721B              jc 0x2c6
000002AB  88C8              mov al,cl
000002AD  83E03F            and ax,byte +0x3f
000002B0  C0E906            shr cl,byte 0x6
000002B3  C1C908            ror cx,byte 0x8
000002B6  41                inc cx
000002B7  0FB6DE            movzx bx,dh
000002BA  43                inc bx
000002BB  894C02            mov [si+0x2],cx
000002BE  895C04            mov [si+0x4],bx
000002C1  894406            mov [si+0x6],ax
000002C4  EB08              jmp short 0x2ce
000002C6  B80000            mov ax,0x0
000002C9  FF4EFE            dec word [bp-0x2]
000002CC  75D5              jnz 0x2a3
000002CE  9D                popf
000002CF  5F                pop di
000002D0  5E                pop si
000002D1  07                pop es
000002D2  59                pop cx
000002D3  5B                pop bx
000002D4  89EC              mov sp,bp
000002D6  5D                pop bp
000002D7  C3                ret
000002D8  55                push bp
000002D9  89E5              mov bp,sp
000002DB  50                push ax
000002DC  53                push bx
000002DD  56                push si
000002DE  06                push es
000002DF  55                push bp
000002E0  8B7604            mov si,[bp+0x4]
000002E3  B83011            mov ax,0x1130
000002E6  B706              mov bh,0x6
000002E8  CD10              int 0x10
000002EA  8C04              mov [si],es
000002EC  896C02            mov [si+0x2],bp
000002EF  5D                pop bp
000002F0  07                pop es
000002F1  5E                pop si
000002F2  5B                pop bx
000002F3  58                pop ax
000002F4  89EC              mov sp,bp
000002F6  5D                pop bp
000002F7  C3                ret
000002F8  6650              push eax
000002FA  6653              push ebx
000002FC  6651              push ecx
000002FE  6652              push edx
00000300  56                push si
00000301  57                push di
00000302  55                push bp
00000303  9C                pushf
00000304  BD0000            mov bp,0x0
00000307  66BB00000000      mov ebx,0x0
0000030D  68997F            push word 0x7f99
00000310  E8ADFD            call 0xc0
00000313  83C402            add sp,byte +0x2
00000316  66B820E80000      mov eax,0xe820
0000031C  66B914000000      mov ecx,0x14
00000322  66BA50414D53      mov edx,0x534d4150
00000328  BF3080            mov di,0x8030
0000032B  CD15              int 0x15
0000032D  663D50414D53      cmp eax,0x534d4150
00000333  7402              jz 0x337
00000335  EB4C              jmp short 0x383
00000337  7302              jnc 0x33b
00000339  EB48              jmp short 0x383
0000033B  57                push di
0000033C  E80501            call 0x444
0000033F  83C402            add sp,byte +0x2
00000342  668B4510          mov eax,[di+0x10]
00000346  6683F803          cmp eax,byte +0x3
0000034A  750F              jnz 0x35b
0000034C  668B05            mov eax,[di]
0000034F  66A3047E          mov [0x7e04],eax
00000353  668B4508          mov eax,[di+0x8]
00000357  66A3087E          mov [0x7e08],eax
0000035B  6683FB00          cmp ebx,byte +0x0
0000035F  741C              jz 0x37d
00000361  45                inc bp
00000362  83E507            and bp,byte +0x7
00000365  7516              jnz 0x37d
00000367  680D80            push word 0x800d
0000036A  E853FD            call 0xc0
0000036D  83C402            add sp,byte +0x2
00000370  B410              mov ah,0x10
00000372  CD16              int 0x16
00000374  681880            push word 0x8018
00000377  E846FD            call 0xc0
0000037A  83C402            add sp,byte +0x2
0000037D  6683FB00          cmp ebx,byte +0x0
00000381  7593              jnz 0x316
00000383  68DD7F            push word 0x7fdd
00000386  E837FD            call 0xc0
00000389  83C402            add sp,byte +0x2
0000038C  9D                popf
0000038D  5D                pop bp
0000038E  5F                pop di
0000038F  5E                pop si
00000390  665A              pop edx
00000392  6659              pop ecx
00000394  665B              pop ebx
00000396  6658              pop eax
00000398  C3                ret
00000399  204538            and [di+0x38],al
0000039C  3230              xor dh,[bx+si]
0000039E  5F                pop di
0000039F  52                push dx
000003A0  45                inc bp
000003A1  43                inc bx
000003A2  4F                dec di
000003A3  52                push dx
000003A4  44                inc sp
000003A5  5F                pop di
000003A6  53                push bx
000003A7  49                dec cx
000003A8  5A                pop dx
000003A9  45                inc bp
000003AA  3A0A              cmp cl,[bp+si]
000003AC  0D2042            or ax,0x4220
000003AF  61                popa
000003B0  7365              jnc 0x417
000003B2  5F                pop di
000003B3  5F                pop di
000003B4  5F                pop di
000003B5  5F                pop di
000003B6  5F                pop di
000003B7  5F                pop di
000003B8  5F                pop di
000003B9  5F                pop di
000003BA  5F                pop di
000003BB  5F                pop di
000003BC  5F                pop di
000003BD  5F                pop di
000003BE  5F                pop di
000003BF  204C65            and [si+0x65],cl
000003C2  6E                outsb
000003C3  677468            jz 0x42e
000003C6  5F                pop di
000003C7  5F                pop di
000003C8  5F                pop di
000003C9  5F                pop di
000003CA  5F                pop di
000003CB  5F                pop di
000003CC  5F                pop di
000003CD  5F                pop di
000003CE  5F                pop di
000003CF  5F                pop di
000003D0  5F                pop di
000003D1  205479            and [si+0x79],dl
000003D4  7065              jo 0x43b
000003D6  5F                pop di
000003D7  5F                pop di
000003D8  5F                pop di
000003D9  5F                pop di
000003DA  0A0D              or cl,[di]
000003DC  0020              add [bx+si],ah
000003DE  2D2D2D            sub ax,0x2d2d
000003E1  2D2D2D            sub ax,0x2d2d
000003E4  2D2D2D            sub ax,0x2d2d
000003E7  2D2D2D            sub ax,0x2d2d
000003EA  2D2D2D            sub ax,0x2d2d
000003ED  2D2D2D            sub ax,0x2d2d
000003F0  2D2D2D            sub ax,0x2d2d
000003F3  2D2D2D            sub ax,0x2d2d
000003F6  2D2D2D            sub ax,0x2d2d
000003F9  2D2D2D            sub ax,0x2d2d
000003FC  2D2D2D            sub ax,0x2d2d
000003FF  2D2D2D            sub ax,0x2d2d
00000402  2D2D2D            sub ax,0x2d2d
00000405  2D2D2D            sub ax,0x2d2d
00000408  2D2D0A            sub ax,0xa2d
0000040B  0D0020            or ax,0x2000
0000040E  3C6D              cmp al,0x6d
00000410  6F                outsw
00000411  7265              jc 0x478
00000413  2E2E2E3E000D      add [ds:di],cl
00000419  2020              and [bx+si],ah
0000041B  2020              and [bx+si],ah
0000041D  2020              and [bx+si],ah
0000041F  2020              and [bx+si],ah
00000421  2020              and [bx+si],ah
00000423  0D0041            or ax,0x4100
00000426  43                inc bx
00000427  50                push ax
00000428  49                dec cx
00000429  6E                outsb
0000042A  6F                outsw
0000042B  770A              ja 0x437
0000042D  0D0000            or ax,0x0
00000430  0000              add [bx+si],al
00000432  0000              add [bx+si],al
00000434  0000              add [bx+si],al
00000436  0000              add [bx+si],al
00000438  0000              add [bx+si],al
0000043A  0000              add [bx+si],al
0000043C  0000              add [bx+si],al
0000043E  0000              add [bx+si],al
00000440  0000              add [bx+si],al
00000442  0000              add [bx+si],al
00000444  55                push bp
00000445  89E5              mov bp,sp
00000447  53                push bx
00000448  56                push si
00000449  8B7604            mov si,[bp+0x4]
0000044C  6A04              push byte +0x4
0000044E  6A10              push byte +0x10
00000450  6A04              push byte +0x4
00000452  682381            push word 0x8123
00000455  FF7406            push word [si+0x6]
00000458  E8B1FD            call 0x20c
0000045B  83C40A            add sp,byte +0xa
0000045E  6A04              push byte +0x4
00000460  6A10              push byte +0x10
00000462  6A04              push byte +0x4
00000464  682781            push word 0x8127
00000467  FF7404            push word [si+0x4]
0000046A  E89FFD            call 0x20c
0000046D  83C40A            add sp,byte +0xa
00000470  6A04              push byte +0x4
00000472  6A10              push byte +0x10
00000474  6A04              push byte +0x4
00000476  682C81            push word 0x812c
00000479  FF7402            push word [si+0x2]
0000047C  E88DFD            call 0x20c
0000047F  83C40A            add sp,byte +0xa
00000482  6A04              push byte +0x4
00000484  6A10              push byte +0x10
00000486  6A04              push byte +0x4
00000488  683081            push word 0x8130
0000048B  FF34              push word [si]
0000048D  E87CFD            call 0x20c
00000490  83C40A            add sp,byte +0xa
00000493  6A04              push byte +0x4
00000495  6A10              push byte +0x10
00000497  6A04              push byte +0x4
00000499  683581            push word 0x8135
0000049C  FF740E            push word [si+0xe]
0000049F  E86AFD            call 0x20c
000004A2  83C40A            add sp,byte +0xa
000004A5  6A04              push byte +0x4
000004A7  6A10              push byte +0x10
000004A9  6A04              push byte +0x4
000004AB  683981            push word 0x8139
000004AE  FF740C            push word [si+0xc]
000004B1  E858FD            call 0x20c
000004B4  83C40A            add sp,byte +0xa
000004B7  6A04              push byte +0x4
000004B9  6A10              push byte +0x10
000004BB  6A04              push byte +0x4
000004BD  683E81            push word 0x813e
000004C0  FF740A            push word [si+0xa]
000004C3  E846FD            call 0x20c
000004C6  83C40A            add sp,byte +0xa
000004C9  6A04              push byte +0x4
000004CB  6A10              push byte +0x10
000004CD  6A04              push byte +0x4
000004CF  684281            push word 0x8142
000004D2  FF7408            push word [si+0x8]
000004D5  E834FD            call 0x20c
000004D8  83C40A            add sp,byte +0xa
000004DB  6A04              push byte +0x4
000004DD  6A10              push byte +0x10
000004DF  6A04              push byte +0x4
000004E1  684781            push word 0x8147
000004E4  FF7412            push word [si+0x12]
000004E7  E822FD            call 0x20c
000004EA  83C40A            add sp,byte +0xa
000004ED  6A04              push byte +0x4
000004EF  6A10              push byte +0x10
000004F1  6A04              push byte +0x4
000004F3  684B81            push word 0x814b
000004F6  FF7410            push word [si+0x10]
000004F9  E810FD            call 0x20c
000004FC  83C40A            add sp,byte +0xa
000004FF  682281            push word 0x8122
00000502  E8BBFB            call 0xc0
00000505  83C402            add sp,byte +0x2
00000508  8B5C10            mov bx,[si+0x10]
0000050B  83E307            and bx,byte +0x7
0000050E  D1E3              shl bx,1
00000510  81C3A581          add bx,0x81a5
00000514  FF37              push word [bx]
00000516  E8A7FB            call 0xc0
00000519  83C402            add sp,byte +0x2
0000051C  5E                pop si
0000051D  5B                pop bx
0000051E  89EC              mov sp,bp
00000520  5D                pop bp
00000521  C3                ret
00000522  205A5A            and [bp+si+0x5a],bl
00000525  5A                pop dx
00000526  5A                pop dx
00000527  5A                pop dx
00000528  5A                pop dx
00000529  5A                pop dx
0000052A  5A                pop dx
0000052B  5F                pop di
0000052C  5A                pop dx
0000052D  5A                pop dx
0000052E  5A                pop dx
0000052F  5A                pop dx
00000530  5A                pop dx
00000531  5A                pop dx
00000532  5A                pop dx
00000533  5A                pop dx
00000534  205A5A            and [bp+si+0x5a],bl
00000537  5A                pop dx
00000538  5A                pop dx
00000539  5A                pop dx
0000053A  5A                pop dx
0000053B  5A                pop dx
0000053C  5A                pop dx
0000053D  5F                pop di
0000053E  5A                pop dx
0000053F  5A                pop dx
00000540  5A                pop dx
00000541  5A                pop dx
00000542  5A                pop dx
00000543  5A                pop dx
00000544  5A                pop dx
00000545  5A                pop dx
00000546  205A5A            and [bp+si+0x5a],bl
00000549  5A                pop dx
0000054A  5A                pop dx
0000054B  5A                pop dx
0000054C  5A                pop dx
0000054D  5A                pop dx
0000054E  5A                pop dx
0000054F  2000              and [bx+si],al
00000551  2028              and [bx+si],ch
00000553  55                push bp
00000554  6E                outsb
00000555  6B6E6F77          imul bp,[bp+0x6f],byte +0x77
00000559  6E                outsb
0000055A  290A              sub [bp+si],cx
0000055C  0D0020            or ax,0x2000
0000055F  287573            sub [di+0x73],dh
00000562  61                popa
00000563  626C65            bound bp,[si+0x65]
00000566  290A              sub [bp+si],cx
00000568  0D0020            or ax,0x2000
0000056B  287265            sub [bp+si+0x65],dh
0000056E  7365              jnc 0x5d5
00000570  7276              jc 0x5e8
00000572  6564290A          sub [fs:bp+si],cx
00000576  0D0020            or ax,0x2000
00000579  284143            sub [bx+di+0x43],al
0000057C  50                push ax
0000057D  49                dec cx
0000057E  206461            and [si+0x61],ah
00000581  7461              jz 0x5e4
00000583  290A              sub [bp+si],cx
00000585  0D0020            or ax,0x2000
00000588  284143            sub [bx+di+0x43],al
0000058B  50                push ax
0000058C  49                dec cx
0000058D  204E56            and [bp+0x56],cl
00000590  53                push bx
00000591  290A              sub [bp+si],cx
00000593  0D0020            or ax,0x2000
00000596  286261            sub [bp+si+0x61],ah
00000599  64206D65          and [fs:di+0x65],ch
0000059D  6D                insw
0000059E  6F                outsw
0000059F  7279              jc 0x61a
000005A1  290A              sub [bp+si],cx
000005A3  0D0051            or ax,0x5100
000005A6  815E816A81        sbb word [bp-0x7f],0x816a
000005AB  7881              js 0x52e
000005AD  87819581          xchg ax,[bx+di-0x7e6b]
000005B1  55                push bp
000005B2  89E5              mov bp,sp
000005B4  51                push cx
000005B5  9C                pushf
000005B6  B90300            mov cx,0x3
000005B9  E464              in al,0x64
000005BB  A802              test al,0x2
000005BD  E0FA              loopne 0x5b9
000005BF  83F900            cmp cx,byte +0x0
000005C2  7407              jz 0x5cb
000005C4  8A4604            mov al,[bp+0x4]
000005C7  E660              out 0x60,al
000005C9  89C8              mov ax,cx
000005CB  9D                popf
000005CC  59                pop cx
000005CD  89EC              mov sp,bp
000005CF  5D                pop bp
000005D0  C3                ret
000005D1  55                push bp
000005D2  89E5              mov bp,sp
000005D4  51                push cx
000005D5  57                push di
000005D6  9C                pushf
000005D7  B90300            mov cx,0x3
000005DA  E464              in al,0x64
000005DC  A801              test al,0x1
000005DE  E1FA              loope 0x5da
000005E0  83F900            cmp cx,byte +0x0
000005E3  740B              jz 0x5f0
000005E5  B400              mov ah,0x0
000005E7  E460              in al,0x60
000005E9  8B7E04            mov di,[bp+0x4]
000005EC  8905              mov [di],ax
000005EE  89C8              mov ax,cx
000005F0  9D                popf
000005F1  5F                pop di
000005F2  59                pop cx
000005F3  89EC              mov sp,bp
000005F5  5D                pop bp
000005F6  C3                ret
000005F7  55                push bp
000005F8  89E5              mov bp,sp
000005FA  51                push cx
000005FB  9C                pushf
000005FC  B90300            mov cx,0x3
000005FF  E464              in al,0x64
00000601  A802              test al,0x2
00000603  E0FA              loopne 0x5ff
00000605  83F900            cmp cx,byte +0x0
00000608  7407              jz 0x611
0000060A  8A4604            mov al,[bp+0x4]
0000060D  E664              out 0x64,al
0000060F  89C8              mov ax,cx
00000611  59                pop cx
00000612  9C                pushf
00000613  89EC              mov sp,bp
00000615  5D                pop bp
00000616  C3                ret
00000617  55                push bp
00000618  89E5              mov bp,sp
0000061A  56                push si
0000061B  9C                pushf
0000061C  8B7604            mov si,[bp+0x4]
0000061F  8B4606            mov ax,[bp+0x6]
00000622  50                push ax
00000623  684782            push word 0x8247
00000626  56                push si
00000627  E82500            call 0x64f
0000062A  83C406            add sp,byte +0x6
0000062D  8A04              mov al,[si]
0000062F  A24782            mov [0x8247],al
00000632  FF760A            push word [bp+0xa]
00000635  FF7608            push word [bp+0x8]
00000638  684782            push word 0x8247
0000063B  E8E2FA            call 0x120
0000063E  83C406            add sp,byte +0x6
00000641  9D                popf
00000642  5E                pop si
00000643  89EC              mov sp,bp
00000645  5D                pop bp
00000646  C3                ret
00000647  0000              add [bx+si],al
00000649  0000              add [bx+si],al
0000064B  0000              add [bx+si],al
0000064D  0000              add [bx+si],al
0000064F  55                push bp
00000650  89E5              mov bp,sp
00000652  50                push ax
00000653  53                push bx
00000654  52                push dx
00000655  56                push si
00000656  57                push di
00000657  9C                pushf
00000658  8B7604            mov si,[bp+0x4]
0000065B  8B7E06            mov di,[bp+0x6]
0000065E  8A4404            mov al,[si+0x4]
00000661  F66406            mul byte [si+0x6]
00000664  89C3              mov bx,ax
00000666  8B4608            mov ax,[bp+0x8]
00000669  BA0000            mov dx,0x0
0000066C  F7F3              div bx
0000066E  894502            mov [di+0x2],ax
00000671  89D0              mov ax,dx
00000673  F67406            div byte [si+0x6]
00000676  0FB6D4            movzx dx,ah
00000679  42                inc dx
0000067A  B400              mov ah,0x0
0000067C  894504            mov [di+0x4],ax
0000067F  895506            mov [di+0x6],dx
00000682  9D                popf
00000683  5F                pop di
00000684  5E                pop si
00000685  5A                pop dx
00000686  5B                pop bx
00000687  58                pop ax
00000688  89EC              mov sp,bp
0000068A  5D                pop bp
0000068B  C3                ret
0000068C  55                push bp
0000068D  89E5              mov bp,sp
0000068F  53                push bx
00000690  9C                pushf
00000691  B453              mov ah,0x53
00000693  B000              mov al,0x0
00000695  31DB              xor bx,bx
00000697  CD15              int 0x15
00000699  7205              jc 0x6a0
0000069B  B80000            mov ax,0x0
0000069E  EB03              jmp short 0x6a3
000006A0  B80100            mov ax,0x1
000006A3  9D                popf
000006A4  5B                pop bx
000006A5  89EC              mov sp,bp
000006A7  5D                pop bp
000006A8  C3                ret
000006A9  55                push bp
000006AA  89E5              mov bp,sp
000006AC  53                push bx
000006AD  51                push cx
000006AE  9C                pushf
000006AF  B453              mov ah,0x53
000006B1  B007              mov al,0x7
000006B3  BB0100            mov bx,0x1
000006B6  B90300            mov cx,0x3
000006B9  CD15              int 0x15
000006BB  B80100            mov ax,0x1
000006BE  9D                popf
000006BF  59                pop cx
000006C0  5B                pop bx
000006C1  89EC              mov sp,bp
000006C3  5D                pop bp
000006C4  C3                ret
000006C5  683F83            push word 0x833f
000006C8  E8F5F9            call 0xc0
000006CB  83C402            add sp,byte +0x2
000006CE  68B87C            push word 0x7cb8
000006D1  E8BAFB            call 0x28e
000006D4  83C402            add sp,byte +0x2
000006D7  83F800            cmp ax,byte +0x0
000006DA  750C              jnz 0x6e8
000006DC  687683            push word 0x8376
000006DF  E8DEF9            call 0xc0
000006E2  83C402            add sp,byte +0x2
000006E5  E8F9F9            call 0xe1
000006E8  A1B87C            mov ax,[0x7cb8]
000006EB  6A04              push byte +0x4
000006ED  6A10              push byte +0x10
000006EF  6A02              push byte +0x2
000006F1  685783            push word 0x8357
000006F4  50                push ax
000006F5  E814FB            call 0x20c
000006F8  83C40A            add sp,byte +0xa
000006FB  A1BA7C            mov ax,[0x7cba]
000006FE  6A04              push byte +0x4
00000700  6A10              push byte +0x10
00000702  6A04              push byte +0x4
00000704  685F83            push word 0x835f
00000707  50                push ax
00000708  E801FB            call 0x20c
0000070B  83C40A            add sp,byte +0xa
0000070E  A1BC7C            mov ax,[0x7cbc]
00000711  6A04              push byte +0x4
00000713  6A10              push byte +0x10
00000715  6A02              push byte +0x2
00000717  686983            push word 0x8369
0000071A  50                push ax
0000071B  E8EEFA            call 0x20c
0000071E  83C40A            add sp,byte +0xa
00000721  A1BE7C            mov ax,[0x7cbe]
00000724  6A04              push byte +0x4
00000726  6A10              push byte +0x10
00000728  6A02              push byte +0x2
0000072A  687183            push word 0x8371
0000072D  50                push ax
0000072E  E8DBFA            call 0x20c
00000731  83C40A            add sp,byte +0xa
00000734  684E83            push word 0x834e
00000737  E886F9            call 0xc0
0000073A  83C402            add sp,byte +0x2
0000073D  EB52              jmp short 0x791
0000073F  326E64            xor ch,[bp+0x64]
00000742  207374            and [bp+di+0x74],dh
00000745  61                popa
00000746  67652E2E2E0A0D00  or cl,[dword cs:0x72442000]
         -204472
00000751  6976653A30        imul si,[bp+0x65],word 0x303a
00000756  782D              js 0x785
00000758  2D2C20            sub ax,0x202c
0000075B  43                inc bx
0000075C  3A30              cmp dh,[bx+si]
0000075E  782D              js 0x78d
00000760  2D2D2D            sub ax,0x2d2d
00000763  2C20              sub al,0x20
00000765  48                dec ax
00000766  3A30              cmp dh,[bx+si]
00000768  782D              js 0x797
0000076A  2D2C20            sub ax,0x202c
0000076D  53                push bx
0000076E  3A30              cmp dh,[bx+si]
00000770  782D              js 0x79f
00000772  2D0A0D            sub ax,0xd0a
00000775  004572            add [di+0x72],al
00000778  726F              jc 0x7e9
0000077A  723A              jc 0x7b6
0000077C  43                inc bx
0000077D  61                popa
0000077E  6E                outsb
0000077F  27                daa
00000780  7420              jz 0x7a2
00000782  67657420          gs jz 0x7a6
00000786  7061              jo 0x7e9
00000788  7261              jc 0x7eb
0000078A  6D                insw
0000078B  657465            gs jz 0x7f3
0000078E  722E              jc 0x7be
00000790  006819            add [bx+si+0x19],ch
00000793  84E8              test al,ch
00000795  29F9              sub cx,di
00000797  83C402            add sp,byte +0x2
0000079A  68007E            push word 0x7e00
0000079D  E838FB            call 0x2d8
000007A0  83C402            add sp,byte +0x2
000007A3  6A04              push byte +0x4
000007A5  6A10              push byte +0x10
000007A7  6A04              push byte +0x4
000007A9  683684            push word 0x8436
000007AC  FF36007E          push word [0x7e00]
000007B0  E859FA            call 0x20c
000007B3  83C40A            add sp,byte +0xa
000007B6  6A04              push byte +0x4
000007B8  6A10              push byte +0x10
000007BA  6A04              push byte +0x4
000007BC  683B84            push word 0x843b
000007BF  FF36027E          push word [0x7e02]
000007C3  E846FA            call 0x20c
000007C6  83C40A            add sp,byte +0xa
000007C9  682884            push word 0x8428
000007CC  E8F1F8            call 0xc0
000007CF  83C402            add sp,byte +0x2
000007D2  E823FB            call 0x2f8
000007D5  66A1047E          mov eax,[0x7e04]
000007D9  6683F800          cmp eax,byte +0x0
000007DD  742D              jz 0x80c
000007DF  6A04              push byte +0x4
000007E1  6A10              push byte +0x10
000007E3  6A04              push byte +0x4
000007E5  685484            push word 0x8454
000007E8  50                push ax
000007E9  E820FA            call 0x20c
000007EC  83C40A            add sp,byte +0xa
000007EF  66C1E810          shr eax,byte 0x10
000007F3  6A04              push byte +0x4
000007F5  6A10              push byte +0x10
000007F7  6A04              push byte +0x4
000007F9  685084            push word 0x8450
000007FC  50                push ax
000007FD  E80CFA            call 0x20c
00000800  83C40A            add sp,byte +0xa
00000803  684584            push word 0x8445
00000806  E8B7F8            call 0xc0
00000809  83C402            add sp,byte +0x2
0000080C  EB4D              jmp short 0x85b
0000080E  2D2D2D            sub ax,0x2d2d
00000811  2D2D2D            sub ax,0x2d2d
00000814  2D2D0A            sub ax,0xa2d
00000817  0D0033            or ax,0x3300
0000081A  7264              jc 0x880
0000081C  207374            and [bp+di+0x74],dh
0000081F  61                popa
00000820  67652E2E2E0A0D00  or cl,[dword cs:0x6f462000]
         -20466F
0000082B  6E                outsb
0000082C  7420              jz 0x84e
0000082E  41                inc cx
0000082F  64647265          fs jc 0x898
00000833  7373              jnc 0x8a8
00000835  3D5A5A            cmp ax,0x5a5a
00000838  5A                pop dx
00000839  5A                pop dx
0000083A  3A5A5A            cmp bl,[bp+si+0x5a]
0000083D  5A                pop dx
0000083E  5A                pop dx
0000083F  0A0D              or cl,[di]
00000841  000A              add [bp+si],cl
00000843  0D0020            or ax,0x2000
00000846  41                inc cx
00000847  43                inc bx
00000848  50                push ax
00000849  49                dec cx
0000084A  204441            and [si+0x41],al
0000084D  54                push sp
0000084E  41                inc cx
0000084F  3D5A5A            cmp ax,0x5a5a
00000852  5A                pop dx
00000853  5A                pop dx
00000854  5A                pop dx
00000855  5A                pop dx
00000856  5A                pop dx
00000857  5A                pop dx
00000858  0A0D              or cl,[di]
0000085A  006846            add [bx+si+0x46],ch
0000085D  85E8              test ax,bp
0000085F  5F                pop di
00000860  F8                clc
00000861  83C402            add sp,byte +0x2
00000864  FA                cli
00000865  68AD00            push word 0xad
00000868  E88CFD            call 0x5f7
0000086B  83C402            add sp,byte +0x2
0000086E  68D000            push word 0xd0
00000871  E883FD            call 0x5f7
00000874  83C402            add sp,byte +0x2
00000877  684285            push word 0x8542
0000087A  E854FD            call 0x5d1
0000087D  83C402            add sp,byte +0x2
00000880  8A1E4285          mov bl,[0x8542]
00000884  80CB02            or bl,0x2
00000887  68D100            push word 0xd1
0000088A  E86AFD            call 0x5f7
0000088D  83C402            add sp,byte +0x2
00000890  53                push bx
00000891  E81DFD            call 0x5b1
00000894  83C402            add sp,byte +0x2
00000897  83F800            cmp ax,byte +0x0
0000089A  7509              jnz 0x8a5
0000089C  686A85            push word 0x856a
0000089F  E81EF8            call 0xc0
000008A2  83C402            add sp,byte +0x2
000008A5  68AE00            push word 0xae
000008A8  E84CFD            call 0x5f7
000008AB  83C402            add sp,byte +0x2
000008AE  FB                sti
000008AF  685585            push word 0x8555
000008B2  E80BF8            call 0xc0
000008B5  83C402            add sp,byte +0x2
000008B8  688585            push word 0x8585
000008BB  E802F8            call 0xc0
000008BE  83C402            add sp,byte +0x2
000008C1  BB0000            mov bx,0x0
000008C4  B92700            mov cx,0x27
000008C7  51                push cx
000008C8  B400              mov ah,0x0
000008CA  CD16              int 0x16
000008CC  3C31              cmp al,0x31
000008CE  7267              jc 0x937
000008D0  3C33              cmp al,0x33
000008D2  7763              ja 0x937
000008D4  88C1              mov cl,al
000008D6  FEC9              dec cl
000008D8  80E103            and cl,0x3
000008DB  B80100            mov ax,0x1
000008DE  D3E0              shl ax,cl
000008E0  31C3              xor bx,ax
000008E2  FA                cli
000008E3  68AD00            push word 0xad
000008E6  E80EFD            call 0x5f7
000008E9  83C402            add sp,byte +0x2
000008EC  68ED00            push word 0xed
000008EF  E805FD            call 0x5f7
000008F2  83C402            add sp,byte +0x2
000008F5  684285            push word 0x8542
000008F8  E8D6FC            call 0x5d1
000008FB  83C402            add sp,byte +0x2
000008FE  803E4285FA        cmp byte [0x8542],0xfa
00000903  7509              jnz 0x90e
00000905  53                push bx
00000906  E8A8FC            call 0x5b1
00000909  83C402            add sp,byte +0x2
0000090C  EB1C              jmp short 0x92a
0000090E  6A00              push byte +0x0
00000910  6A10              push byte +0x10
00000912  6A02              push byte +0x2
00000914  68AA85            push word 0x85aa
00000917  FF364285          push word [0x8542]
0000091B  E8EEF8            call 0x20c
0000091E  83C40A            add sp,byte +0xa
00000921  68A885            push word 0x85a8
00000924  E899F7            call 0xc0
00000927  83C402            add sp,byte +0x2
0000092A  68AE00            push word 0xae
0000092D  E8C7FC            call 0x5f7
00000930  83C402            add sp,byte +0x2
00000933  FB                sti
00000934  59                pop cx
00000935  E290              loop 0x8c7
00000937  689B85            push word 0x859b
0000093A  E883F7            call 0xc0
0000093D  83C402            add sp,byte +0x2
00000940  EB6E              jmp short 0x9b0
00000942  0000              add [bx+si],al
00000944  0000              add [bx+si],al
00000946  3474              xor al,0x74
00000948  682073            push word 0x7320
0000094B  7461              jz 0x9ae
0000094D  67652E2E2E0A0D00  or cl,[dword cs:0x32412000]
         -204132
00000958  3020              xor [bx+si],ah
0000095A  47                inc di
0000095B  61                popa
0000095C  7465              jz 0x9c3
0000095E  20456E            and [di+0x6e],al
00000961  61                popa
00000962  626C65            bound bp,[si+0x65]
00000965  642E0A0D          or cl,[cs:di]
00000969  0020              add [bx+si],ah
0000096B  41                inc cx
0000096C  3230              xor dh,[bx+si]
0000096E  204761            and [bx+0x61],al
00000971  7465              jz 0x9d8
00000973  20636F            and [bp+di+0x6f],ah
00000976  756C              jnz 0x9e4
00000978  6427              fs daa
0000097A  7420              jz 0x99c
0000097C  45                inc bp
0000097D  6E                outsb
0000097E  61                popa
0000097F  626C65            bound bp,[si+0x65]
00000982  0A0D              or cl,[di]
00000984  0020              add [bx+si],ah
00000986  4B                dec bx
00000987  657962            gs jns 0x9ec
0000098A  6F                outsw
0000098B  61                popa
0000098C  7264              jc 0x9f2
0000098E  204C45            and [si+0x45],cl
00000991  44                inc sp
00000992  205465            and [si+0x65],dl
00000995  7374              jnc 0xa0b
00000997  2E2E2E0020        add [cs:bx+si],ah
0000099C  28646F            sub [si+0x6f],ah
0000099F  6E                outsb
000009A0  65290A            sub [gs:bp+si],cx
000009A3  0D000A            or ax,0xa00
000009A6  0D0020            or ax,0x2000
000009A9  5B                pop bx
000009AA  5A                pop dx
000009AB  5A                pop dx
000009AC  5D                pop bp
000009AD  0A0D              or cl,[di]
000009AF  0068DC            add [bx+si-0x24],ch
000009B2  85E8              test ax,bp
000009B4  0AF7              or dh,bh
000009B6  83C402            add sp,byte +0x2
000009B9  68009C            push word 0x9c00
000009BC  6A10              push byte +0x10
000009BE  6A10              push byte +0x10
000009C0  68B87C            push word 0x7cb8
000009C3  E851FC            call 0x617
000009C6  83C408            add sp,byte +0x8
000009C9  83F810            cmp ax,byte +0x10
000009CC  740C              jz 0x9da
000009CE  68EB85            push word 0x85eb
000009D1  E8ECF6            call 0xc0
000009D4  83C402            add sp,byte +0x2
000009D7  E807F7            call 0xe1
000009DA  EB28              jmp short 0xa04
000009DC  357468            xor ax,0x6874
000009DF  207374            and [bp+di+0x74],dh
000009E2  61                popa
000009E3  67652E2E2E0A0D00  or cl,[dword cs:0x69614600]
         -466169
000009EE  6C                insb
000009EF  7572              jnz 0xa63
000009F1  65206C6F          and [gs:si+0x6f],ch
000009F5  61                popa
000009F6  64206B65          and [fs:bp+di+0x65],ch
000009FA  726E              jc 0xa6a
000009FC  656C              gs insb
000009FE  2E2E2E0A0D        or cl,[cs:di]
00000A03  00689E            add [bx+si-0x62],ch
00000A06  86E8              xchg ch,al
00000A08  B6F6              mov dh,0xf6
00000A0A  83C402            add sp,byte +0x2
00000A0D  68AD86            push word 0x86ad
00000A10  E8ADF6            call 0xc0
00000A13  83C402            add sp,byte +0x2
00000A16  B81000            mov ax,0x10
00000A19  CD16              int 0x16
00000A1B  3C70              cmp al,0x70
00000A1D  7507              jnz 0xa26
00000A1F  B81200            mov ax,0x12
00000A22  CD10              int 0x10
00000A24  EB5A              jmp short 0xa80
00000A26  3C73              cmp al,0x73
00000A28  7554              jnz 0xa7e
00000A2A  E85FFC            call 0x68c
00000A2D  83F800            cmp ax,byte +0x0
00000A30  7541              jnz 0xa73
00000A32  68FC86            push word 0x86fc
00000A35  E888F6            call 0xc0
00000A38  83C402            add sp,byte +0x2
00000A3B  684087            push word 0x8740
00000A3E  E87FF6            call 0xc0
00000A41  83C402            add sp,byte +0x2
00000A44  B81000            mov ax,0x10
00000A47  CD16              int 0x16
00000A49  3C79              cmp al,0x79
00000A4B  7515              jnz 0xa62
00000A4D  E859FC            call 0x6a9
00000A50  83F800            cmp ax,byte +0x0
00000A53  740B              jz 0xa60
00000A55  680F87            push word 0x870f
00000A58  E865F6            call 0xc0
00000A5B  83C402            add sp,byte +0x2
00000A5E  EB20              jmp short 0xa80
00000A60  EB0F              jmp short 0xa71
00000A62  3C6E              cmp al,0x6e
00000A64  750B              jnz 0xa71
00000A66  687287            push word 0x8772
00000A69  E854F6            call 0xc0
00000A6C  83C402            add sp,byte +0x2
00000A6F  EB0F              jmp short 0xa80
00000A71  EB0B              jmp short 0xa7e
00000A73  68E486            push word 0x86e4
00000A76  E847F6            call 0xc0
00000A79  83C402            add sp,byte +0x2
00000A7C  EB02              jmp short 0xa80
00000A7E  EB96              jmp short 0xa16
00000A80  B8630F            mov ax,0xf63
00000A83  6A01              push byte +0x1
00000A85  6A0A              push byte +0xa
00000A87  6A08              push byte +0x8
00000A89  688C87            push word 0x878c
00000A8C  50                push ax
00000A8D  E87CF7            call 0x20c
00000A90  83C40A            add sp,byte +0xa
00000A93  688C87            push word 0x878c
00000A96  E827F6            call 0xc0
00000A99  83C402            add sp,byte +0x2
00000A9C  EBFE              jmp short 0xa9c
00000A9E  367468            ss jz 0xb09
00000AA1  207374            and [bp+di+0x74],dh
00000AA4  61                popa
00000AA5  67652E2E2E0A0D00  or cl,[dword cs:0x27282000]
         -202827
00000AB0  7027              jo 0xad9
00000AB2  206B65            and [bp+di+0x65],ch
00000AB5  7920              jns 0xad7
00000AB7  746F              jz 0xb28
00000AB9  207072            and [bx+si+0x72],dh
00000ABC  6F                outsw
00000ABD  7465              jz 0xb24
00000ABF  63742D            arpl [si+0x2d],si
00000AC2  6D                insw
00000AC3  6F                outsw
00000AC4  64652920          sub [gs:bx+si],sp
00000AC8  6F                outsw
00000AC9  7220              jc 0xaeb
00000ACB  2827              sub [bx],ah
00000ACD  7327              jnc 0xaf6
00000ACF  206B65            and [bp+di+0x65],ch
00000AD2  7920              jns 0xaf4
00000AD4  746F              jz 0xb45
00000AD6  207368            and [bp+di+0x68],dh
00000AD9  7574              jnz 0xb4f
00000ADB  646F              fs outsw
00000ADD  776E              ja 0xb4d
00000ADF  292E2E2E          sub [0x2e2e],bp
00000AE3  0020              add [bx+si],ah
00000AE5  284150            sub [bx+di+0x50],al
00000AE8  4D                dec bp
00000AE9  206E6F            and [bp+0x6f],ch
00000AEC  7420              jz 0xb0e
00000AEE  7375              jnc 0xb65
00000AF0  7070              jo 0xb62
00000AF2  6F                outsw
00000AF3  7274              jc 0xb69
00000AF5  6564290A          sub [fs:bp+si],cx
00000AF9  0D0A00            or ax,0xa
00000AFC  2028              and [bx+si],ch
00000AFE  41                inc cx
00000AFF  50                push ax
00000B00  4D                dec bp
00000B01  207375            and [bp+di+0x75],dh
00000B04  7070              jo 0xb76
00000B06  6F                outsw
00000B07  7274              jc 0xb7d
00000B09  6564290A          sub [fs:bp+si],cx
00000B0D  0D0020            or ax,0x2000
00000B10  54                push sp
00000B11  686572            push word 0x7265
00000B14  65207761          and [gs:bx+0x61],dh
00000B18  7320              jnc 0xb3a
00000B1A  61                popa
00000B1B  6E                outsb
00000B1C  206572            and [di+0x72],ah
00000B1F  726F              jc 0xb90
00000B21  7220              jc 0xb43
00000B23  647572            fs jnz 0xb98
00000B26  696E672073        imul bp,[bp+0x67],word 0x7320
00000B2B  687574            push word 0x7475
00000B2E  646F              fs outsw
00000B30  776E              ja 0xba0
00000B32  2028              and [bx+si],ch
00000B34  3E5F              ds pop di
00000B36  3C29              cmp al,0x29
00000B38  736F              jnc 0xba9
00000B3A  7272              jc 0xbae
00000B3C  790A              jns 0xb48
00000B3E  0D0020            or ax,0x2000
00000B41  41                inc cx
00000B42  7265              jc 0xba9
00000B44  20796F            and [bx+di+0x6f],bh
00000B47  7520              jnz 0xb69
00000B49  7265              jc 0xbb0
00000B4B  61                popa
00000B4C  6C                insb
00000B4D  6C                insb
00000B4E  7920              jns 0xb70
00000B50  7375              jnc 0xbc7
00000B52  7265              jc 0xbb9
00000B54  20746F            and [si+0x6f],dh
00000B57  207368            and [bp+di+0x68],dh
00000B5A  7574              jnz 0xbd0
00000B5C  646F              fs outsw
00000B5E  776E              ja 0xbce
00000B60  2028              and [bx+si],ch
00000B62  3F                aas
00000B63  5F                pop di
00000B64  3F                aas
00000B65  292E2E2E          sub [0x2e2e],bp
00000B69  2028              and [bx+si],ch
00000B6B  792C              jns 0xb99
00000B6D  6E                outsb
00000B6E  290A              sub [bp+si],cx
00000B70  0D0020            or ax,0x2000
00000B73  4F                dec di
00000B74  6B2C20            imul bp,[si],byte +0x20
00000B77  636F6E            arpl [bx+0x6e],bp
00000B7A  7469              jz 0xbe5
00000B7C  6E                outsb
00000B7D  7565              jnz 0xbe4
00000B7F  20706F            and [bx+si+0x6f],dh
00000B82  7765              ja 0xbe9
00000B84  7220              jc 0xba6
00000B86  6F                outsw
00000B87  6E                outsb
00000B88  210A              and [bp+si],cx
00000B8A  0D002D            or ax,0x2d00
00000B8D  2D2D2D            sub ax,0x2d2d
00000B90  2D2D2D            sub ax,0x2d2d
00000B93  2D0A0D            sub ax,0xd0a
00000B96  0000              add [bx+si],al
00000B98  0000              add [bx+si],al
00000B9A  0000              add [bx+si],al
00000B9C  0000              add [bx+si],al
00000B9E  0000              add [bx+si],al
00000BA0  0000              add [bx+si],al
00000BA2  0000              add [bx+si],al
00000BA4  0000              add [bx+si],al
00000BA6  0000              add [bx+si],al
00000BA8  0000              add [bx+si],al
00000BAA  0000              add [bx+si],al
00000BAC  0000              add [bx+si],al
00000BAE  0000              add [bx+si],al
00000BB0  0000              add [bx+si],al
00000BB2  0000              add [bx+si],al
00000BB4  0000              add [bx+si],al
00000BB6  0000              add [bx+si],al
00000BB8  0000              add [bx+si],al
00000BBA  0000              add [bx+si],al
00000BBC  0000              add [bx+si],al
00000BBE  0000              add [bx+si],al
00000BC0  0000              add [bx+si],al
00000BC2  0000              add [bx+si],al
00000BC4  0000              add [bx+si],al
00000BC6  0000              add [bx+si],al
00000BC8  0000              add [bx+si],al
00000BCA  0000              add [bx+si],al
00000BCC  0000              add [bx+si],al
00000BCE  0000              add [bx+si],al
00000BD0  0000              add [bx+si],al
00000BD2  0000              add [bx+si],al
00000BD4  0000              add [bx+si],al
00000BD6  0000              add [bx+si],al
00000BD8  0000              add [bx+si],al
00000BDA  0000              add [bx+si],al
00000BDC  0000              add [bx+si],al
00000BDE  0000              add [bx+si],al
00000BE0  0000              add [bx+si],al
00000BE2  0000              add [bx+si],al
00000BE4  0000              add [bx+si],al
00000BE6  0000              add [bx+si],al
00000BE8  0000              add [bx+si],al
00000BEA  0000              add [bx+si],al
00000BEC  0000              add [bx+si],al
00000BEE  0000              add [bx+si],al
00000BF0  0000              add [bx+si],al
00000BF2  0000              add [bx+si],al
00000BF4  0000              add [bx+si],al
00000BF6  0000              add [bx+si],al
00000BF8  0000              add [bx+si],al
00000BFA  0000              add [bx+si],al
00000BFC  0000              add [bx+si],al
00000BFE  0000              add [bx+si],al
00000C00  0000              add [bx+si],al
00000C02  0000              add [bx+si],al
00000C04  0000              add [bx+si],al
00000C06  0000              add [bx+si],al
00000C08  0000              add [bx+si],al
00000C0A  0000              add [bx+si],al
00000C0C  0000              add [bx+si],al
00000C0E  0000              add [bx+si],al
00000C10  0000              add [bx+si],al
00000C12  0000              add [bx+si],al
00000C14  0000              add [bx+si],al
00000C16  0000              add [bx+si],al
00000C18  0000              add [bx+si],al
00000C1A  0000              add [bx+si],al
00000C1C  0000              add [bx+si],al
00000C1E  0000              add [bx+si],al
00000C20  0000              add [bx+si],al
00000C22  0000              add [bx+si],al
00000C24  0000              add [bx+si],al
00000C26  0000              add [bx+si],al
00000C28  0000              add [bx+si],al
00000C2A  0000              add [bx+si],al
00000C2C  0000              add [bx+si],al
00000C2E  0000              add [bx+si],al
00000C30  0000              add [bx+si],al
00000C32  0000              add [bx+si],al
00000C34  0000              add [bx+si],al
00000C36  0000              add [bx+si],al
00000C38  0000              add [bx+si],al
00000C3A  0000              add [bx+si],al
00000C3C  0000              add [bx+si],al
00000C3E  0000              add [bx+si],al
00000C40  0000              add [bx+si],al
00000C42  0000              add [bx+si],al
00000C44  0000              add [bx+si],al
00000C46  0000              add [bx+si],al
00000C48  0000              add [bx+si],al
00000C4A  0000              add [bx+si],al
00000C4C  0000              add [bx+si],al
00000C4E  0000              add [bx+si],al
00000C50  0000              add [bx+si],al
00000C52  0000              add [bx+si],al
00000C54  0000              add [bx+si],al
00000C56  0000              add [bx+si],al
00000C58  0000              add [bx+si],al
00000C5A  0000              add [bx+si],al
00000C5C  0000              add [bx+si],al
00000C5E  0000              add [bx+si],al
00000C60  0000              add [bx+si],al
00000C62  0000              add [bx+si],al
00000C64  0000              add [bx+si],al
00000C66  0000              add [bx+si],al
00000C68  0000              add [bx+si],al
00000C6A  0000              add [bx+si],al
00000C6C  0000              add [bx+si],al
00000C6E  0000              add [bx+si],al
00000C70  0000              add [bx+si],al
00000C72  0000              add [bx+si],al
00000C74  0000              add [bx+si],al
00000C76  0000              add [bx+si],al
00000C78  0000              add [bx+si],al
00000C7A  0000              add [bx+si],al
00000C7C  0000              add [bx+si],al
00000C7E  0000              add [bx+si],al
00000C80  0000              add [bx+si],al
00000C82  0000              add [bx+si],al
00000C84  0000              add [bx+si],al
00000C86  0000              add [bx+si],al
00000C88  0000              add [bx+si],al
00000C8A  0000              add [bx+si],al
00000C8C  0000              add [bx+si],al
00000C8E  0000              add [bx+si],al
00000C90  0000              add [bx+si],al
00000C92  0000              add [bx+si],al
00000C94  0000              add [bx+si],al
00000C96  0000              add [bx+si],al
00000C98  0000              add [bx+si],al
00000C9A  0000              add [bx+si],al
00000C9C  0000              add [bx+si],al
00000C9E  0000              add [bx+si],al
00000CA0  0000              add [bx+si],al
00000CA2  0000              add [bx+si],al
00000CA4  0000              add [bx+si],al
00000CA6  0000              add [bx+si],al
00000CA8  0000              add [bx+si],al
00000CAA  0000              add [bx+si],al
00000CAC  0000              add [bx+si],al
00000CAE  0000              add [bx+si],al
00000CB0  0000              add [bx+si],al
00000CB2  0000              add [bx+si],al
00000CB4  0000              add [bx+si],al
00000CB6  0000              add [bx+si],al
00000CB8  0000              add [bx+si],al
00000CBA  0000              add [bx+si],al
00000CBC  0000              add [bx+si],al
00000CBE  0000              add [bx+si],al
00000CC0  0000              add [bx+si],al
00000CC2  0000              add [bx+si],al
00000CC4  0000              add [bx+si],al
00000CC6  0000              add [bx+si],al
00000CC8  0000              add [bx+si],al
00000CCA  0000              add [bx+si],al
00000CCC  0000              add [bx+si],al
00000CCE  0000              add [bx+si],al
00000CD0  0000              add [bx+si],al
00000CD2  0000              add [bx+si],al
00000CD4  0000              add [bx+si],al
00000CD6  0000              add [bx+si],al
00000CD8  0000              add [bx+si],al
00000CDA  0000              add [bx+si],al
00000CDC  0000              add [bx+si],al
00000CDE  0000              add [bx+si],al
00000CE0  0000              add [bx+si],al
00000CE2  0000              add [bx+si],al
00000CE4  0000              add [bx+si],al
00000CE6  0000              add [bx+si],al
00000CE8  0000              add [bx+si],al
00000CEA  0000              add [bx+si],al
00000CEC  0000              add [bx+si],al
00000CEE  0000              add [bx+si],al
00000CF0  0000              add [bx+si],al
00000CF2  0000              add [bx+si],al
00000CF4  0000              add [bx+si],al
00000CF6  0000              add [bx+si],al
00000CF8  0000              add [bx+si],al
00000CFA  0000              add [bx+si],al
00000CFC  0000              add [bx+si],al
00000CFE  0000              add [bx+si],al
00000D00  0000              add [bx+si],al
00000D02  0000              add [bx+si],al
00000D04  0000              add [bx+si],al
00000D06  0000              add [bx+si],al
00000D08  0000              add [bx+si],al
00000D0A  0000              add [bx+si],al
00000D0C  0000              add [bx+si],al
00000D0E  0000              add [bx+si],al
00000D10  0000              add [bx+si],al
00000D12  0000              add [bx+si],al
00000D14  0000              add [bx+si],al
00000D16  0000              add [bx+si],al
00000D18  0000              add [bx+si],al
00000D1A  0000              add [bx+si],al
00000D1C  0000              add [bx+si],al
00000D1E  0000              add [bx+si],al
00000D20  0000              add [bx+si],al
00000D22  0000              add [bx+si],al
00000D24  0000              add [bx+si],al
00000D26  0000              add [bx+si],al
00000D28  0000              add [bx+si],al
00000D2A  0000              add [bx+si],al
00000D2C  0000              add [bx+si],al
00000D2E  0000              add [bx+si],al
00000D30  0000              add [bx+si],al
00000D32  0000              add [bx+si],al
00000D34  0000              add [bx+si],al
00000D36  0000              add [bx+si],al
00000D38  0000              add [bx+si],al
00000D3A  0000              add [bx+si],al
00000D3C  0000              add [bx+si],al
00000D3E  0000              add [bx+si],al
00000D40  0000              add [bx+si],al
00000D42  0000              add [bx+si],al
00000D44  0000              add [bx+si],al
00000D46  0000              add [bx+si],al
00000D48  0000              add [bx+si],al
00000D4A  0000              add [bx+si],al
00000D4C  0000              add [bx+si],al
00000D4E  0000              add [bx+si],al
00000D50  0000              add [bx+si],al
00000D52  0000              add [bx+si],al
00000D54  0000              add [bx+si],al
00000D56  0000              add [bx+si],al
00000D58  0000              add [bx+si],al
00000D5A  0000              add [bx+si],al
00000D5C  0000              add [bx+si],al
00000D5E  0000              add [bx+si],al
00000D60  0000              add [bx+si],al
00000D62  0000              add [bx+si],al
00000D64  0000              add [bx+si],al
00000D66  0000              add [bx+si],al
00000D68  0000              add [bx+si],al
00000D6A  0000              add [bx+si],al
00000D6C  0000              add [bx+si],al
00000D6E  0000              add [bx+si],al
00000D70  0000              add [bx+si],al
00000D72  0000              add [bx+si],al
00000D74  0000              add [bx+si],al
00000D76  0000              add [bx+si],al
00000D78  0000              add [bx+si],al
00000D7A  0000              add [bx+si],al
00000D7C  0000              add [bx+si],al
00000D7E  0000              add [bx+si],al
00000D80  0000              add [bx+si],al
00000D82  0000              add [bx+si],al
00000D84  0000              add [bx+si],al
00000D86  0000              add [bx+si],al
00000D88  0000              add [bx+si],al
00000D8A  0000              add [bx+si],al
00000D8C  0000              add [bx+si],al
00000D8E  0000              add [bx+si],al
00000D90  0000              add [bx+si],al
00000D92  0000              add [bx+si],al
00000D94  0000              add [bx+si],al
00000D96  0000              add [bx+si],al
00000D98  0000              add [bx+si],al
00000D9A  0000              add [bx+si],al
00000D9C  0000              add [bx+si],al
00000D9E  0000              add [bx+si],al
00000DA0  0000              add [bx+si],al
00000DA2  0000              add [bx+si],al
00000DA4  0000              add [bx+si],al
00000DA6  0000              add [bx+si],al
00000DA8  0000              add [bx+si],al
00000DAA  0000              add [bx+si],al
00000DAC  0000              add [bx+si],al
00000DAE  0000              add [bx+si],al
00000DB0  0000              add [bx+si],al
00000DB2  0000              add [bx+si],al
00000DB4  0000              add [bx+si],al
00000DB6  0000              add [bx+si],al
00000DB8  0000              add [bx+si],al
00000DBA  0000              add [bx+si],al
00000DBC  0000              add [bx+si],al
00000DBE  0000              add [bx+si],al
00000DC0  0000              add [bx+si],al
00000DC2  0000              add [bx+si],al
00000DC4  0000              add [bx+si],al
00000DC6  0000              add [bx+si],al
00000DC8  0000              add [bx+si],al
00000DCA  0000              add [bx+si],al
00000DCC  0000              add [bx+si],al
00000DCE  0000              add [bx+si],al
00000DD0  0000              add [bx+si],al
00000DD2  0000              add [bx+si],al
00000DD4  0000              add [bx+si],al
00000DD6  0000              add [bx+si],al
00000DD8  0000              add [bx+si],al
00000DDA  0000              add [bx+si],al
00000DDC  0000              add [bx+si],al
00000DDE  0000              add [bx+si],al
00000DE0  0000              add [bx+si],al
00000DE2  0000              add [bx+si],al
00000DE4  0000              add [bx+si],al
00000DE6  0000              add [bx+si],al
00000DE8  0000              add [bx+si],al
00000DEA  0000              add [bx+si],al
00000DEC  0000              add [bx+si],al
00000DEE  0000              add [bx+si],al
00000DF0  0000              add [bx+si],al
00000DF2  0000              add [bx+si],al
00000DF4  0000              add [bx+si],al
00000DF6  0000              add [bx+si],al
00000DF8  0000              add [bx+si],al
00000DFA  0000              add [bx+si],al
00000DFC  0000              add [bx+si],al
00000DFE  0000              add [bx+si],al
00000E00  0000              add [bx+si],al
00000E02  0000              add [bx+si],al
00000E04  0000              add [bx+si],al
00000E06  0000              add [bx+si],al
00000E08  0000              add [bx+si],al
00000E0A  0000              add [bx+si],al
00000E0C  0000              add [bx+si],al
00000E0E  0000              add [bx+si],al
00000E10  0000              add [bx+si],al
00000E12  0000              add [bx+si],al
00000E14  0000              add [bx+si],al
00000E16  0000              add [bx+si],al
00000E18  0000              add [bx+si],al
00000E1A  0000              add [bx+si],al
00000E1C  0000              add [bx+si],al
00000E1E  0000              add [bx+si],al
00000E20  0000              add [bx+si],al
00000E22  0000              add [bx+si],al
00000E24  0000              add [bx+si],al
00000E26  0000              add [bx+si],al
00000E28  0000              add [bx+si],al
00000E2A  0000              add [bx+si],al
00000E2C  0000              add [bx+si],al
00000E2E  0000              add [bx+si],al
00000E30  0000              add [bx+si],al
00000E32  0000              add [bx+si],al
00000E34  0000              add [bx+si],al
00000E36  0000              add [bx+si],al
00000E38  0000              add [bx+si],al
00000E3A  0000              add [bx+si],al
00000E3C  0000              add [bx+si],al
00000E3E  0000              add [bx+si],al
00000E40  0000              add [bx+si],al
00000E42  0000              add [bx+si],al
00000E44  0000              add [bx+si],al
00000E46  0000              add [bx+si],al
00000E48  0000              add [bx+si],al
00000E4A  0000              add [bx+si],al
00000E4C  0000              add [bx+si],al
00000E4E  0000              add [bx+si],al
00000E50  0000              add [bx+si],al
00000E52  0000              add [bx+si],al
00000E54  0000              add [bx+si],al
00000E56  0000              add [bx+si],al
00000E58  0000              add [bx+si],al
00000E5A  0000              add [bx+si],al
00000E5C  0000              add [bx+si],al
00000E5E  0000              add [bx+si],al
00000E60  0000              add [bx+si],al
00000E62  0000              add [bx+si],al
00000E64  0000              add [bx+si],al
00000E66  0000              add [bx+si],al
00000E68  0000              add [bx+si],al
00000E6A  0000              add [bx+si],al
00000E6C  0000              add [bx+si],al
00000E6E  0000              add [bx+si],al
00000E70  0000              add [bx+si],al
00000E72  0000              add [bx+si],al
00000E74  0000              add [bx+si],al
00000E76  0000              add [bx+si],al
00000E78  0000              add [bx+si],al
00000E7A  0000              add [bx+si],al
00000E7C  0000              add [bx+si],al
00000E7E  0000              add [bx+si],al
00000E80  0000              add [bx+si],al
00000E82  0000              add [bx+si],al
00000E84  0000              add [bx+si],al
00000E86  0000              add [bx+si],al
00000E88  0000              add [bx+si],al
00000E8A  0000              add [bx+si],al
00000E8C  0000              add [bx+si],al
00000E8E  0000              add [bx+si],al
00000E90  0000              add [bx+si],al
00000E92  0000              add [bx+si],al
00000E94  0000              add [bx+si],al
00000E96  0000              add [bx+si],al
00000E98  0000              add [bx+si],al
00000E9A  0000              add [bx+si],al
00000E9C  0000              add [bx+si],al
00000E9E  0000              add [bx+si],al
00000EA0  0000              add [bx+si],al
00000EA2  0000              add [bx+si],al
00000EA4  0000              add [bx+si],al
00000EA6  0000              add [bx+si],al
00000EA8  0000              add [bx+si],al
00000EAA  0000              add [bx+si],al
00000EAC  0000              add [bx+si],al
00000EAE  0000              add [bx+si],al
00000EB0  0000              add [bx+si],al
00000EB2  0000              add [bx+si],al
00000EB4  0000              add [bx+si],al
00000EB6  0000              add [bx+si],al
00000EB8  0000              add [bx+si],al
00000EBA  0000              add [bx+si],al
00000EBC  0000              add [bx+si],al
00000EBE  0000              add [bx+si],al
00000EC0  0000              add [bx+si],al
00000EC2  0000              add [bx+si],al
00000EC4  0000              add [bx+si],al
00000EC6  0000              add [bx+si],al
00000EC8  0000              add [bx+si],al
00000ECA  0000              add [bx+si],al
00000ECC  0000              add [bx+si],al
00000ECE  0000              add [bx+si],al
00000ED0  0000              add [bx+si],al
00000ED2  0000              add [bx+si],al
00000ED4  0000              add [bx+si],al
00000ED6  0000              add [bx+si],al
00000ED8  0000              add [bx+si],al
00000EDA  0000              add [bx+si],al
00000EDC  0000              add [bx+si],al
00000EDE  0000              add [bx+si],al
00000EE0  0000              add [bx+si],al
00000EE2  0000              add [bx+si],al
00000EE4  0000              add [bx+si],al
00000EE6  0000              add [bx+si],al
00000EE8  0000              add [bx+si],al
00000EEA  0000              add [bx+si],al
00000EEC  0000              add [bx+si],al
00000EEE  0000              add [bx+si],al
00000EF0  0000              add [bx+si],al
00000EF2  0000              add [bx+si],al
00000EF4  0000              add [bx+si],al
00000EF6  0000              add [bx+si],al
00000EF8  0000              add [bx+si],al
00000EFA  0000              add [bx+si],al
00000EFC  0000              add [bx+si],al
00000EFE  0000              add [bx+si],al
00000F00  0000              add [bx+si],al
00000F02  0000              add [bx+si],al
00000F04  0000              add [bx+si],al
00000F06  0000              add [bx+si],al
00000F08  0000              add [bx+si],al
00000F0A  0000              add [bx+si],al
00000F0C  0000              add [bx+si],al
00000F0E  0000              add [bx+si],al
00000F10  0000              add [bx+si],al
00000F12  0000              add [bx+si],al
00000F14  0000              add [bx+si],al
00000F16  0000              add [bx+si],al
00000F18  0000              add [bx+si],al
00000F1A  0000              add [bx+si],al
00000F1C  0000              add [bx+si],al
00000F1E  0000              add [bx+si],al
00000F20  0000              add [bx+si],al
00000F22  0000              add [bx+si],al
00000F24  0000              add [bx+si],al
00000F26  0000              add [bx+si],al
00000F28  0000              add [bx+si],al
00000F2A  0000              add [bx+si],al
00000F2C  0000              add [bx+si],al
00000F2E  0000              add [bx+si],al
00000F30  0000              add [bx+si],al
00000F32  0000              add [bx+si],al
00000F34  0000              add [bx+si],al
00000F36  0000              add [bx+si],al
00000F38  0000              add [bx+si],al
00000F3A  0000              add [bx+si],al
00000F3C  0000              add [bx+si],al
00000F3E  0000              add [bx+si],al
00000F40  0000              add [bx+si],al
00000F42  0000              add [bx+si],al
00000F44  0000              add [bx+si],al
00000F46  0000              add [bx+si],al
00000F48  0000              add [bx+si],al
00000F4A  0000              add [bx+si],al
00000F4C  0000              add [bx+si],al
00000F4E  0000              add [bx+si],al
00000F50  0000              add [bx+si],al
00000F52  0000              add [bx+si],al
00000F54  0000              add [bx+si],al
00000F56  0000              add [bx+si],al
00000F58  0000              add [bx+si],al
00000F5A  0000              add [bx+si],al
00000F5C  0000              add [bx+si],al
00000F5E  0000              add [bx+si],al
00000F60  0000              add [bx+si],al
00000F62  0000              add [bx+si],al
00000F64  0000              add [bx+si],al
00000F66  0000              add [bx+si],al
00000F68  0000              add [bx+si],al
00000F6A  0000              add [bx+si],al
00000F6C  0000              add [bx+si],al
00000F6E  0000              add [bx+si],al
00000F70  0000              add [bx+si],al
00000F72  0000              add [bx+si],al
00000F74  0000              add [bx+si],al
00000F76  0000              add [bx+si],al
00000F78  0000              add [bx+si],al
00000F7A  0000              add [bx+si],al
00000F7C  0000              add [bx+si],al
00000F7E  0000              add [bx+si],al
00000F80  0000              add [bx+si],al
00000F82  0000              add [bx+si],al
00000F84  0000              add [bx+si],al
00000F86  0000              add [bx+si],al
00000F88  0000              add [bx+si],al
00000F8A  0000              add [bx+si],al
00000F8C  0000              add [bx+si],al
00000F8E  0000              add [bx+si],al
00000F90  0000              add [bx+si],al
00000F92  0000              add [bx+si],al
00000F94  0000              add [bx+si],al
00000F96  0000              add [bx+si],al
00000F98  0000              add [bx+si],al
00000F9A  0000              add [bx+si],al
00000F9C  0000              add [bx+si],al
00000F9E  0000              add [bx+si],al
00000FA0  0000              add [bx+si],al
00000FA2  0000              add [bx+si],al
00000FA4  0000              add [bx+si],al
00000FA6  0000              add [bx+si],al
00000FA8  0000              add [bx+si],al
00000FAA  0000              add [bx+si],al
00000FAC  0000              add [bx+si],al
00000FAE  0000              add [bx+si],al
00000FB0  0000              add [bx+si],al
00000FB2  0000              add [bx+si],al
00000FB4  0000              add [bx+si],al
00000FB6  0000              add [bx+si],al
00000FB8  0000              add [bx+si],al
00000FBA  0000              add [bx+si],al
00000FBC  0000              add [bx+si],al
00000FBE  0000              add [bx+si],al
00000FC0  0000              add [bx+si],al
00000FC2  0000              add [bx+si],al
00000FC4  0000              add [bx+si],al
00000FC6  0000              add [bx+si],al
00000FC8  0000              add [bx+si],al
00000FCA  0000              add [bx+si],al
00000FCC  0000              add [bx+si],al
00000FCE  0000              add [bx+si],al
00000FD0  0000              add [bx+si],al
00000FD2  0000              add [bx+si],al
00000FD4  0000              add [bx+si],al
00000FD6  0000              add [bx+si],al
00000FD8  0000              add [bx+si],al
00000FDA  0000              add [bx+si],al
00000FDC  0000              add [bx+si],al
00000FDE  0000              add [bx+si],al
00000FE0  0000              add [bx+si],al
00000FE2  0000              add [bx+si],al
00000FE4  0000              add [bx+si],al
00000FE6  0000              add [bx+si],al
00000FE8  0000              add [bx+si],al
00000FEA  0000              add [bx+si],al
00000FEC  0000              add [bx+si],al
00000FEE  0000              add [bx+si],al
00000FF0  0000              add [bx+si],al
00000FF2  0000              add [bx+si],al
00000FF4  0000              add [bx+si],al
00000FF6  0000              add [bx+si],al
00000FF8  0000              add [bx+si],al
00000FFA  0000              add [bx+si],al
00000FFC  0000              add [bx+si],al
00000FFE  0000              add [bx+si],al
00001000  0000              add [bx+si],al
00001002  0000              add [bx+si],al
00001004  0000              add [bx+si],al
00001006  0000              add [bx+si],al
00001008  0000              add [bx+si],al
0000100A  0000              add [bx+si],al
0000100C  0000              add [bx+si],al
0000100E  0000              add [bx+si],al
00001010  0000              add [bx+si],al
00001012  0000              add [bx+si],al
00001014  0000              add [bx+si],al
00001016  0000              add [bx+si],al
00001018  0000              add [bx+si],al
0000101A  0000              add [bx+si],al
0000101C  0000              add [bx+si],al
0000101E  0000              add [bx+si],al
00001020  0000              add [bx+si],al
00001022  0000              add [bx+si],al
00001024  0000              add [bx+si],al
00001026  0000              add [bx+si],al
00001028  0000              add [bx+si],al
0000102A  0000              add [bx+si],al
0000102C  0000              add [bx+si],al
0000102E  0000              add [bx+si],al
00001030  0000              add [bx+si],al
00001032  0000              add [bx+si],al
00001034  0000              add [bx+si],al
00001036  0000              add [bx+si],al
00001038  0000              add [bx+si],al
0000103A  0000              add [bx+si],al
0000103C  0000              add [bx+si],al
0000103E  0000              add [bx+si],al
00001040  0000              add [bx+si],al
00001042  0000              add [bx+si],al
00001044  0000              add [bx+si],al
00001046  0000              add [bx+si],al
00001048  0000              add [bx+si],al
0000104A  0000              add [bx+si],al
0000104C  0000              add [bx+si],al
0000104E  0000              add [bx+si],al
00001050  0000              add [bx+si],al
00001052  0000              add [bx+si],al
00001054  0000              add [bx+si],al
00001056  0000              add [bx+si],al
00001058  0000              add [bx+si],al
0000105A  0000              add [bx+si],al
0000105C  0000              add [bx+si],al
0000105E  0000              add [bx+si],al
00001060  0000              add [bx+si],al
00001062  0000              add [bx+si],al
00001064  0000              add [bx+si],al
00001066  0000              add [bx+si],al
00001068  0000              add [bx+si],al
0000106A  0000              add [bx+si],al
0000106C  0000              add [bx+si],al
0000106E  0000              add [bx+si],al
00001070  0000              add [bx+si],al
00001072  0000              add [bx+si],al
00001074  0000              add [bx+si],al
00001076  0000              add [bx+si],al
00001078  0000              add [bx+si],al
0000107A  0000              add [bx+si],al
0000107C  0000              add [bx+si],al
0000107E  0000              add [bx+si],al
00001080  0000              add [bx+si],al
00001082  0000              add [bx+si],al
00001084  0000              add [bx+si],al
00001086  0000              add [bx+si],al
00001088  0000              add [bx+si],al
0000108A  0000              add [bx+si],al
0000108C  0000              add [bx+si],al
0000108E  0000              add [bx+si],al
00001090  0000              add [bx+si],al
00001092  0000              add [bx+si],al
00001094  0000              add [bx+si],al
00001096  0000              add [bx+si],al
00001098  0000              add [bx+si],al
0000109A  0000              add [bx+si],al
0000109C  0000              add [bx+si],al
0000109E  0000              add [bx+si],al
000010A0  0000              add [bx+si],al
000010A2  0000              add [bx+si],al
000010A4  0000              add [bx+si],al
000010A6  0000              add [bx+si],al
000010A8  0000              add [bx+si],al
000010AA  0000              add [bx+si],al
000010AC  0000              add [bx+si],al
000010AE  0000              add [bx+si],al
000010B0  0000              add [bx+si],al
000010B2  0000              add [bx+si],al
000010B4  0000              add [bx+si],al
000010B6  0000              add [bx+si],al
000010B8  0000              add [bx+si],al
000010BA  0000              add [bx+si],al
000010BC  0000              add [bx+si],al
000010BE  0000              add [bx+si],al
000010C0  0000              add [bx+si],al
000010C2  0000              add [bx+si],al
000010C4  0000              add [bx+si],al
000010C6  0000              add [bx+si],al
000010C8  0000              add [bx+si],al
000010CA  0000              add [bx+si],al
000010CC  0000              add [bx+si],al
000010CE  0000              add [bx+si],al
000010D0  0000              add [bx+si],al
000010D2  0000              add [bx+si],al
000010D4  0000              add [bx+si],al
000010D6  0000              add [bx+si],al
000010D8  0000              add [bx+si],al
000010DA  0000              add [bx+si],al
000010DC  0000              add [bx+si],al
000010DE  0000              add [bx+si],al
000010E0  0000              add [bx+si],al
000010E2  0000              add [bx+si],al
000010E4  0000              add [bx+si],al
000010E6  0000              add [bx+si],al
000010E8  0000              add [bx+si],al
000010EA  0000              add [bx+si],al
000010EC  0000              add [bx+si],al
000010EE  0000              add [bx+si],al
000010F0  0000              add [bx+si],al
000010F2  0000              add [bx+si],al
000010F4  0000              add [bx+si],al
000010F6  0000              add [bx+si],al
000010F8  0000              add [bx+si],al
000010FA  0000              add [bx+si],al
000010FC  0000              add [bx+si],al
000010FE  0000              add [bx+si],al
00001100  0000              add [bx+si],al
00001102  0000              add [bx+si],al
00001104  0000              add [bx+si],al
00001106  0000              add [bx+si],al
00001108  0000              add [bx+si],al
0000110A  0000              add [bx+si],al
0000110C  0000              add [bx+si],al
0000110E  0000              add [bx+si],al
00001110  0000              add [bx+si],al
00001112  0000              add [bx+si],al
00001114  0000              add [bx+si],al
00001116  0000              add [bx+si],al
00001118  0000              add [bx+si],al
0000111A  0000              add [bx+si],al
0000111C  0000              add [bx+si],al
0000111E  0000              add [bx+si],al
00001120  0000              add [bx+si],al
00001122  0000              add [bx+si],al
00001124  0000              add [bx+si],al
00001126  0000              add [bx+si],al
00001128  0000              add [bx+si],al
0000112A  0000              add [bx+si],al
0000112C  0000              add [bx+si],al
0000112E  0000              add [bx+si],al
00001130  0000              add [bx+si],al
00001132  0000              add [bx+si],al
00001134  0000              add [bx+si],al
00001136  0000              add [bx+si],al
00001138  0000              add [bx+si],al
0000113A  0000              add [bx+si],al
0000113C  0000              add [bx+si],al
0000113E  0000              add [bx+si],al
00001140  0000              add [bx+si],al
00001142  0000              add [bx+si],al
00001144  0000              add [bx+si],al
00001146  0000              add [bx+si],al
00001148  0000              add [bx+si],al
0000114A  0000              add [bx+si],al
0000114C  0000              add [bx+si],al
0000114E  0000              add [bx+si],al
00001150  0000              add [bx+si],al
00001152  0000              add [bx+si],al
00001154  0000              add [bx+si],al
00001156  0000              add [bx+si],al
00001158  0000              add [bx+si],al
0000115A  0000              add [bx+si],al
0000115C  0000              add [bx+si],al
0000115E  0000              add [bx+si],al
00001160  0000              add [bx+si],al
00001162  0000              add [bx+si],al
00001164  0000              add [bx+si],al
00001166  0000              add [bx+si],al
00001168  0000              add [bx+si],al
0000116A  0000              add [bx+si],al
0000116C  0000              add [bx+si],al
0000116E  0000              add [bx+si],al
00001170  0000              add [bx+si],al
00001172  0000              add [bx+si],al
00001174  0000              add [bx+si],al
00001176  0000              add [bx+si],al
00001178  0000              add [bx+si],al
0000117A  0000              add [bx+si],al
0000117C  0000              add [bx+si],al
0000117E  0000              add [bx+si],al
00001180  0000              add [bx+si],al
00001182  0000              add [bx+si],al
00001184  0000              add [bx+si],al
00001186  0000              add [bx+si],al
00001188  0000              add [bx+si],al
0000118A  0000              add [bx+si],al
0000118C  0000              add [bx+si],al
0000118E  0000              add [bx+si],al
00001190  0000              add [bx+si],al
00001192  0000              add [bx+si],al
00001194  0000              add [bx+si],al
00001196  0000              add [bx+si],al
00001198  0000              add [bx+si],al
0000119A  0000              add [bx+si],al
0000119C  0000              add [bx+si],al
0000119E  0000              add [bx+si],al
000011A0  0000              add [bx+si],al
000011A2  0000              add [bx+si],al
000011A4  0000              add [bx+si],al
000011A6  0000              add [bx+si],al
000011A8  0000              add [bx+si],al
000011AA  0000              add [bx+si],al
000011AC  0000              add [bx+si],al
000011AE  0000              add [bx+si],al
000011B0  0000              add [bx+si],al
000011B2  0000              add [bx+si],al
000011B4  0000              add [bx+si],al
000011B6  0000              add [bx+si],al
000011B8  0000              add [bx+si],al
000011BA  0000              add [bx+si],al
000011BC  0000              add [bx+si],al
000011BE  0000              add [bx+si],al
000011C0  0000              add [bx+si],al
000011C2  0000              add [bx+si],al
000011C4  0000              add [bx+si],al
000011C6  0000              add [bx+si],al
000011C8  0000              add [bx+si],al
000011CA  0000              add [bx+si],al
000011CC  0000              add [bx+si],al
000011CE  0000              add [bx+si],al
000011D0  0000              add [bx+si],al
000011D2  0000              add [bx+si],al
000011D4  0000              add [bx+si],al
000011D6  0000              add [bx+si],al
000011D8  0000              add [bx+si],al
000011DA  0000              add [bx+si],al
000011DC  0000              add [bx+si],al
000011DE  0000              add [bx+si],al
000011E0  0000              add [bx+si],al
000011E2  0000              add [bx+si],al
000011E4  0000              add [bx+si],al
000011E6  0000              add [bx+si],al
000011E8  0000              add [bx+si],al
000011EA  0000              add [bx+si],al
000011EC  0000              add [bx+si],al
000011EE  0000              add [bx+si],al
000011F0  0000              add [bx+si],al
000011F2  0000              add [bx+si],al
000011F4  0000              add [bx+si],al
000011F6  0000              add [bx+si],al
000011F8  0000              add [bx+si],al
000011FA  0000              add [bx+si],al
000011FC  0000              add [bx+si],al
000011FE  0000              add [bx+si],al
00001200  0000              add [bx+si],al
00001202  0000              add [bx+si],al
00001204  0000              add [bx+si],al
00001206  0000              add [bx+si],al
00001208  0000              add [bx+si],al
0000120A  0000              add [bx+si],al
0000120C  0000              add [bx+si],al
0000120E  0000              add [bx+si],al
00001210  0000              add [bx+si],al
00001212  0000              add [bx+si],al
00001214  0000              add [bx+si],al
00001216  0000              add [bx+si],al
00001218  0000              add [bx+si],al
0000121A  0000              add [bx+si],al
0000121C  0000              add [bx+si],al
0000121E  0000              add [bx+si],al
00001220  0000              add [bx+si],al
00001222  0000              add [bx+si],al
00001224  0000              add [bx+si],al
00001226  0000              add [bx+si],al
00001228  0000              add [bx+si],al
0000122A  0000              add [bx+si],al
0000122C  0000              add [bx+si],al
0000122E  0000              add [bx+si],al
00001230  0000              add [bx+si],al
00001232  0000              add [bx+si],al
00001234  0000              add [bx+si],al
00001236  0000              add [bx+si],al
00001238  0000              add [bx+si],al
0000123A  0000              add [bx+si],al
0000123C  0000              add [bx+si],al
0000123E  0000              add [bx+si],al
00001240  0000              add [bx+si],al
00001242  0000              add [bx+si],al
00001244  0000              add [bx+si],al
00001246  0000              add [bx+si],al
00001248  0000              add [bx+si],al
0000124A  0000              add [bx+si],al
0000124C  0000              add [bx+si],al
0000124E  0000              add [bx+si],al
00001250  0000              add [bx+si],al
00001252  0000              add [bx+si],al
00001254  0000              add [bx+si],al
00001256  0000              add [bx+si],al
00001258  0000              add [bx+si],al
0000125A  0000              add [bx+si],al
0000125C  0000              add [bx+si],al
0000125E  0000              add [bx+si],al
00001260  0000              add [bx+si],al
00001262  0000              add [bx+si],al
00001264  0000              add [bx+si],al
00001266  0000              add [bx+si],al
00001268  0000              add [bx+si],al
0000126A  0000              add [bx+si],al
0000126C  0000              add [bx+si],al
0000126E  0000              add [bx+si],al
00001270  0000              add [bx+si],al
00001272  0000              add [bx+si],al
00001274  0000              add [bx+si],al
00001276  0000              add [bx+si],al
00001278  0000              add [bx+si],al
0000127A  0000              add [bx+si],al
0000127C  0000              add [bx+si],al
0000127E  0000              add [bx+si],al
00001280  0000              add [bx+si],al
00001282  0000              add [bx+si],al
00001284  0000              add [bx+si],al
00001286  0000              add [bx+si],al
00001288  0000              add [bx+si],al
0000128A  0000              add [bx+si],al
0000128C  0000              add [bx+si],al
0000128E  0000              add [bx+si],al
00001290  0000              add [bx+si],al
00001292  0000              add [bx+si],al
00001294  0000              add [bx+si],al
00001296  0000              add [bx+si],al
00001298  0000              add [bx+si],al
0000129A  0000              add [bx+si],al
0000129C  0000              add [bx+si],al
0000129E  0000              add [bx+si],al
000012A0  0000              add [bx+si],al
000012A2  0000              add [bx+si],al
000012A4  0000              add [bx+si],al
000012A6  0000              add [bx+si],al
000012A8  0000              add [bx+si],al
000012AA  0000              add [bx+si],al
000012AC  0000              add [bx+si],al
000012AE  0000              add [bx+si],al
000012B0  0000              add [bx+si],al
000012B2  0000              add [bx+si],al
000012B4  0000              add [bx+si],al
000012B6  0000              add [bx+si],al
000012B8  0000              add [bx+si],al
000012BA  0000              add [bx+si],al
000012BC  0000              add [bx+si],al
000012BE  0000              add [bx+si],al
000012C0  0000              add [bx+si],al
000012C2  0000              add [bx+si],al
000012C4  0000              add [bx+si],al
000012C6  0000              add [bx+si],al
000012C8  0000              add [bx+si],al
000012CA  0000              add [bx+si],al
000012CC  0000              add [bx+si],al
000012CE  0000              add [bx+si],al
000012D0  0000              add [bx+si],al
000012D2  0000              add [bx+si],al
000012D4  0000              add [bx+si],al
000012D6  0000              add [bx+si],al
000012D8  0000              add [bx+si],al
000012DA  0000              add [bx+si],al
000012DC  0000              add [bx+si],al
000012DE  0000              add [bx+si],al
000012E0  0000              add [bx+si],al
000012E2  0000              add [bx+si],al
000012E4  0000              add [bx+si],al
000012E6  0000              add [bx+si],al
000012E8  0000              add [bx+si],al
000012EA  0000              add [bx+si],al
000012EC  0000              add [bx+si],al
000012EE  0000              add [bx+si],al
000012F0  0000              add [bx+si],al
000012F2  0000              add [bx+si],al
000012F4  0000              add [bx+si],al
000012F6  0000              add [bx+si],al
000012F8  0000              add [bx+si],al
000012FA  0000              add [bx+si],al
000012FC  0000              add [bx+si],al
000012FE  0000              add [bx+si],al
00001300  0000              add [bx+si],al
00001302  0000              add [bx+si],al
00001304  0000              add [bx+si],al
00001306  0000              add [bx+si],al
00001308  0000              add [bx+si],al
0000130A  0000              add [bx+si],al
0000130C  0000              add [bx+si],al
0000130E  0000              add [bx+si],al
00001310  0000              add [bx+si],al
00001312  0000              add [bx+si],al
00001314  0000              add [bx+si],al
00001316  0000              add [bx+si],al
00001318  0000              add [bx+si],al
0000131A  0000              add [bx+si],al
0000131C  0000              add [bx+si],al
0000131E  0000              add [bx+si],al
00001320  0000              add [bx+si],al
00001322  0000              add [bx+si],al
00001324  0000              add [bx+si],al
00001326  0000              add [bx+si],al
00001328  0000              add [bx+si],al
0000132A  0000              add [bx+si],al
0000132C  0000              add [bx+si],al
0000132E  0000              add [bx+si],al
00001330  0000              add [bx+si],al
00001332  0000              add [bx+si],al
00001334  0000              add [bx+si],al
00001336  0000              add [bx+si],al
00001338  0000              add [bx+si],al
0000133A  0000              add [bx+si],al
0000133C  0000              add [bx+si],al
0000133E  0000              add [bx+si],al
00001340  0000              add [bx+si],al
00001342  0000              add [bx+si],al
00001344  0000              add [bx+si],al
00001346  0000              add [bx+si],al
00001348  0000              add [bx+si],al
0000134A  0000              add [bx+si],al
0000134C  0000              add [bx+si],al
0000134E  0000              add [bx+si],al
00001350  0000              add [bx+si],al
00001352  0000              add [bx+si],al
00001354  0000              add [bx+si],al
00001356  0000              add [bx+si],al
00001358  0000              add [bx+si],al
0000135A  0000              add [bx+si],al
0000135C  0000              add [bx+si],al
0000135E  0000              add [bx+si],al
00001360  0000              add [bx+si],al
00001362  0000              add [bx+si],al
00001364  0000              add [bx+si],al
00001366  0000              add [bx+si],al
00001368  0000              add [bx+si],al
0000136A  0000              add [bx+si],al
0000136C  0000              add [bx+si],al
0000136E  0000              add [bx+si],al
00001370  0000              add [bx+si],al
00001372  0000              add [bx+si],al
00001374  0000              add [bx+si],al
00001376  0000              add [bx+si],al
00001378  0000              add [bx+si],al
0000137A  0000              add [bx+si],al
0000137C  0000              add [bx+si],al
0000137E  0000              add [bx+si],al
00001380  0000              add [bx+si],al
00001382  0000              add [bx+si],al
00001384  0000              add [bx+si],al
00001386  0000              add [bx+si],al
00001388  0000              add [bx+si],al
0000138A  0000              add [bx+si],al
0000138C  0000              add [bx+si],al
0000138E  0000              add [bx+si],al
00001390  0000              add [bx+si],al
00001392  0000              add [bx+si],al
00001394  0000              add [bx+si],al
00001396  0000              add [bx+si],al
00001398  0000              add [bx+si],al
0000139A  0000              add [bx+si],al
0000139C  0000              add [bx+si],al
0000139E  0000              add [bx+si],al
000013A0  0000              add [bx+si],al
000013A2  0000              add [bx+si],al
000013A4  0000              add [bx+si],al
000013A6  0000              add [bx+si],al
000013A8  0000              add [bx+si],al
000013AA  0000              add [bx+si],al
000013AC  0000              add [bx+si],al
000013AE  0000              add [bx+si],al
000013B0  0000              add [bx+si],al
000013B2  0000              add [bx+si],al
000013B4  0000              add [bx+si],al
000013B6  0000              add [bx+si],al
000013B8  0000              add [bx+si],al
000013BA  0000              add [bx+si],al
000013BC  0000              add [bx+si],al
000013BE  0000              add [bx+si],al
000013C0  0000              add [bx+si],al
000013C2  0000              add [bx+si],al
000013C4  0000              add [bx+si],al
000013C6  0000              add [bx+si],al
000013C8  0000              add [bx+si],al
000013CA  0000              add [bx+si],al
000013CC  0000              add [bx+si],al
000013CE  0000              add [bx+si],al
000013D0  0000              add [bx+si],al
000013D2  0000              add [bx+si],al
000013D4  0000              add [bx+si],al
000013D6  0000              add [bx+si],al
000013D8  0000              add [bx+si],al
000013DA  0000              add [bx+si],al
000013DC  0000              add [bx+si],al
000013DE  0000              add [bx+si],al
000013E0  0000              add [bx+si],al
000013E2  0000              add [bx+si],al
000013E4  0000              add [bx+si],al
000013E6  0000              add [bx+si],al
000013E8  0000              add [bx+si],al
000013EA  0000              add [bx+si],al
000013EC  0000              add [bx+si],al
000013EE  0000              add [bx+si],al
000013F0  0000              add [bx+si],al
000013F2  0000              add [bx+si],al
000013F4  0000              add [bx+si],al
000013F6  0000              add [bx+si],al
000013F8  0000              add [bx+si],al
000013FA  0000              add [bx+si],al
000013FC  0000              add [bx+si],al
000013FE  0000              add [bx+si],al
00001400  0000              add [bx+si],al
00001402  0000              add [bx+si],al
00001404  0000              add [bx+si],al
00001406  0000              add [bx+si],al
00001408  0000              add [bx+si],al
0000140A  0000              add [bx+si],al
0000140C  0000              add [bx+si],al
0000140E  0000              add [bx+si],al
00001410  0000              add [bx+si],al
00001412  0000              add [bx+si],al
00001414  0000              add [bx+si],al
00001416  0000              add [bx+si],al
00001418  0000              add [bx+si],al
0000141A  0000              add [bx+si],al
0000141C  0000              add [bx+si],al
0000141E  0000              add [bx+si],al
00001420  0000              add [bx+si],al
00001422  0000              add [bx+si],al
00001424  0000              add [bx+si],al
00001426  0000              add [bx+si],al
00001428  0000              add [bx+si],al
0000142A  0000              add [bx+si],al
0000142C  0000              add [bx+si],al
0000142E  0000              add [bx+si],al
00001430  0000              add [bx+si],al
00001432  0000              add [bx+si],al
00001434  0000              add [bx+si],al
00001436  0000              add [bx+si],al
00001438  0000              add [bx+si],al
0000143A  0000              add [bx+si],al
0000143C  0000              add [bx+si],al
0000143E  0000              add [bx+si],al
00001440  0000              add [bx+si],al
00001442  0000              add [bx+si],al
00001444  0000              add [bx+si],al
00001446  0000              add [bx+si],al
00001448  0000              add [bx+si],al
0000144A  0000              add [bx+si],al
0000144C  0000              add [bx+si],al
0000144E  0000              add [bx+si],al
00001450  0000              add [bx+si],al
00001452  0000              add [bx+si],al
00001454  0000              add [bx+si],al
00001456  0000              add [bx+si],al
00001458  0000              add [bx+si],al
0000145A  0000              add [bx+si],al
0000145C  0000              add [bx+si],al
0000145E  0000              add [bx+si],al
00001460  0000              add [bx+si],al
00001462  0000              add [bx+si],al
00001464  0000              add [bx+si],al
00001466  0000              add [bx+si],al
00001468  0000              add [bx+si],al
0000146A  0000              add [bx+si],al
0000146C  0000              add [bx+si],al
0000146E  0000              add [bx+si],al
00001470  0000              add [bx+si],al
00001472  0000              add [bx+si],al
00001474  0000              add [bx+si],al
00001476  0000              add [bx+si],al
00001478  0000              add [bx+si],al
0000147A  0000              add [bx+si],al
0000147C  0000              add [bx+si],al
0000147E  0000              add [bx+si],al
00001480  0000              add [bx+si],al
00001482  0000              add [bx+si],al
00001484  0000              add [bx+si],al
00001486  0000              add [bx+si],al
00001488  0000              add [bx+si],al
0000148A  0000              add [bx+si],al
0000148C  0000              add [bx+si],al
0000148E  0000              add [bx+si],al
00001490  0000              add [bx+si],al
00001492  0000              add [bx+si],al
00001494  0000              add [bx+si],al
00001496  0000              add [bx+si],al
00001498  0000              add [bx+si],al
0000149A  0000              add [bx+si],al
0000149C  0000              add [bx+si],al
0000149E  0000              add [bx+si],al
000014A0  0000              add [bx+si],al
000014A2  0000              add [bx+si],al
000014A4  0000              add [bx+si],al
000014A6  0000              add [bx+si],al
000014A8  0000              add [bx+si],al
000014AA  0000              add [bx+si],al
000014AC  0000              add [bx+si],al
000014AE  0000              add [bx+si],al
000014B0  0000              add [bx+si],al
000014B2  0000              add [bx+si],al
000014B4  0000              add [bx+si],al
000014B6  0000              add [bx+si],al
000014B8  0000              add [bx+si],al
000014BA  0000              add [bx+si],al
000014BC  0000              add [bx+si],al
000014BE  0000              add [bx+si],al
000014C0  0000              add [bx+si],al
000014C2  0000              add [bx+si],al
000014C4  0000              add [bx+si],al
000014C6  0000              add [bx+si],al
000014C8  0000              add [bx+si],al
000014CA  0000              add [bx+si],al
000014CC  0000              add [bx+si],al
000014CE  0000              add [bx+si],al
000014D0  0000              add [bx+si],al
000014D2  0000              add [bx+si],al
000014D4  0000              add [bx+si],al
000014D6  0000              add [bx+si],al
000014D8  0000              add [bx+si],al
000014DA  0000              add [bx+si],al
000014DC  0000              add [bx+si],al
000014DE  0000              add [bx+si],al
000014E0  0000              add [bx+si],al
000014E2  0000              add [bx+si],al
000014E4  0000              add [bx+si],al
000014E6  0000              add [bx+si],al
000014E8  0000              add [bx+si],al
000014EA  0000              add [bx+si],al
000014EC  0000              add [bx+si],al
000014EE  0000              add [bx+si],al
000014F0  0000              add [bx+si],al
000014F2  0000              add [bx+si],al
000014F4  0000              add [bx+si],al
000014F6  0000              add [bx+si],al
000014F8  0000              add [bx+si],al
000014FA  0000              add [bx+si],al
000014FC  0000              add [bx+si],al
000014FE  0000              add [bx+si],al
00001500  0000              add [bx+si],al
00001502  0000              add [bx+si],al
00001504  0000              add [bx+si],al
00001506  0000              add [bx+si],al
00001508  0000              add [bx+si],al
0000150A  0000              add [bx+si],al
0000150C  0000              add [bx+si],al
0000150E  0000              add [bx+si],al
00001510  0000              add [bx+si],al
00001512  0000              add [bx+si],al
00001514  0000              add [bx+si],al
00001516  0000              add [bx+si],al
00001518  0000              add [bx+si],al
0000151A  0000              add [bx+si],al
0000151C  0000              add [bx+si],al
0000151E  0000              add [bx+si],al
00001520  0000              add [bx+si],al
00001522  0000              add [bx+si],al
00001524  0000              add [bx+si],al
00001526  0000              add [bx+si],al
00001528  0000              add [bx+si],al
0000152A  0000              add [bx+si],al
0000152C  0000              add [bx+si],al
0000152E  0000              add [bx+si],al
00001530  0000              add [bx+si],al
00001532  0000              add [bx+si],al
00001534  0000              add [bx+si],al
00001536  0000              add [bx+si],al
00001538  0000              add [bx+si],al
0000153A  0000              add [bx+si],al
0000153C  0000              add [bx+si],al
0000153E  0000              add [bx+si],al
00001540  0000              add [bx+si],al
00001542  0000              add [bx+si],al
00001544  0000              add [bx+si],al
00001546  0000              add [bx+si],al
00001548  0000              add [bx+si],al
0000154A  0000              add [bx+si],al
0000154C  0000              add [bx+si],al
0000154E  0000              add [bx+si],al
00001550  0000              add [bx+si],al
00001552  0000              add [bx+si],al
00001554  0000              add [bx+si],al
00001556  0000              add [bx+si],al
00001558  0000              add [bx+si],al
0000155A  0000              add [bx+si],al
0000155C  0000              add [bx+si],al
0000155E  0000              add [bx+si],al
00001560  0000              add [bx+si],al
00001562  0000              add [bx+si],al
00001564  0000              add [bx+si],al
00001566  0000              add [bx+si],al
00001568  0000              add [bx+si],al
0000156A  0000              add [bx+si],al
0000156C  0000              add [bx+si],al
0000156E  0000              add [bx+si],al
00001570  0000              add [bx+si],al
00001572  0000              add [bx+si],al
00001574  0000              add [bx+si],al
00001576  0000              add [bx+si],al
00001578  0000              add [bx+si],al
0000157A  0000              add [bx+si],al
0000157C  0000              add [bx+si],al
0000157E  0000              add [bx+si],al
00001580  0000              add [bx+si],al
00001582  0000              add [bx+si],al
00001584  0000              add [bx+si],al
00001586  0000              add [bx+si],al
00001588  0000              add [bx+si],al
0000158A  0000              add [bx+si],al
0000158C  0000              add [bx+si],al
0000158E  0000              add [bx+si],al
00001590  0000              add [bx+si],al
00001592  0000              add [bx+si],al
00001594  0000              add [bx+si],al
00001596  0000              add [bx+si],al
00001598  0000              add [bx+si],al
0000159A  0000              add [bx+si],al
0000159C  0000              add [bx+si],al
0000159E  0000              add [bx+si],al
000015A0  0000              add [bx+si],al
000015A2  0000              add [bx+si],al
000015A4  0000              add [bx+si],al
000015A6  0000              add [bx+si],al
000015A8  0000              add [bx+si],al
000015AA  0000              add [bx+si],al
000015AC  0000              add [bx+si],al
000015AE  0000              add [bx+si],al
000015B0  0000              add [bx+si],al
000015B2  0000              add [bx+si],al
000015B4  0000              add [bx+si],al
000015B6  0000              add [bx+si],al
000015B8  0000              add [bx+si],al
000015BA  0000              add [bx+si],al
000015BC  0000              add [bx+si],al
000015BE  0000              add [bx+si],al
000015C0  0000              add [bx+si],al
000015C2  0000              add [bx+si],al
000015C4  0000              add [bx+si],al
000015C6  0000              add [bx+si],al
000015C8  0000              add [bx+si],al
000015CA  0000              add [bx+si],al
000015CC  0000              add [bx+si],al
000015CE  0000              add [bx+si],al
000015D0  0000              add [bx+si],al
000015D2  0000              add [bx+si],al
000015D4  0000              add [bx+si],al
000015D6  0000              add [bx+si],al
000015D8  0000              add [bx+si],al
000015DA  0000              add [bx+si],al
000015DC  0000              add [bx+si],al
000015DE  0000              add [bx+si],al
000015E0  0000              add [bx+si],al
000015E2  0000              add [bx+si],al
000015E4  0000              add [bx+si],al
000015E6  0000              add [bx+si],al
000015E8  0000              add [bx+si],al
000015EA  0000              add [bx+si],al
000015EC  0000              add [bx+si],al
000015EE  0000              add [bx+si],al
000015F0  0000              add [bx+si],al
000015F2  0000              add [bx+si],al
000015F4  0000              add [bx+si],al
000015F6  0000              add [bx+si],al
000015F8  0000              add [bx+si],al
000015FA  0000              add [bx+si],al
000015FC  0000              add [bx+si],al
000015FE  0000              add [bx+si],al
00001600  0000              add [bx+si],al
00001602  0000              add [bx+si],al
00001604  0000              add [bx+si],al
00001606  0000              add [bx+si],al
00001608  0000              add [bx+si],al
0000160A  0000              add [bx+si],al
0000160C  0000              add [bx+si],al
0000160E  0000              add [bx+si],al
00001610  0000              add [bx+si],al
00001612  0000              add [bx+si],al
00001614  0000              add [bx+si],al
00001616  0000              add [bx+si],al
00001618  0000              add [bx+si],al
0000161A  0000              add [bx+si],al
0000161C  0000              add [bx+si],al
0000161E  0000              add [bx+si],al
00001620  0000              add [bx+si],al
00001622  0000              add [bx+si],al
00001624  0000              add [bx+si],al
00001626  0000              add [bx+si],al
00001628  0000              add [bx+si],al
0000162A  0000              add [bx+si],al
0000162C  0000              add [bx+si],al
0000162E  0000              add [bx+si],al
00001630  0000              add [bx+si],al
00001632  0000              add [bx+si],al
00001634  0000              add [bx+si],al
00001636  0000              add [bx+si],al
00001638  0000              add [bx+si],al
0000163A  0000              add [bx+si],al
0000163C  0000              add [bx+si],al
0000163E  0000              add [bx+si],al
00001640  0000              add [bx+si],al
00001642  0000              add [bx+si],al
00001644  0000              add [bx+si],al
00001646  0000              add [bx+si],al
00001648  0000              add [bx+si],al
0000164A  0000              add [bx+si],al
0000164C  0000              add [bx+si],al
0000164E  0000              add [bx+si],al
00001650  0000              add [bx+si],al
00001652  0000              add [bx+si],al
00001654  0000              add [bx+si],al
00001656  0000              add [bx+si],al
00001658  0000              add [bx+si],al
0000165A  0000              add [bx+si],al
0000165C  0000              add [bx+si],al
0000165E  0000              add [bx+si],al
00001660  0000              add [bx+si],al
00001662  0000              add [bx+si],al
00001664  0000              add [bx+si],al
00001666  0000              add [bx+si],al
00001668  0000              add [bx+si],al
0000166A  0000              add [bx+si],al
0000166C  0000              add [bx+si],al
0000166E  0000              add [bx+si],al
00001670  0000              add [bx+si],al
00001672  0000              add [bx+si],al
00001674  0000              add [bx+si],al
00001676  0000              add [bx+si],al
00001678  0000              add [bx+si],al
0000167A  0000              add [bx+si],al
0000167C  0000              add [bx+si],al
0000167E  0000              add [bx+si],al
00001680  0000              add [bx+si],al
00001682  0000              add [bx+si],al
00001684  0000              add [bx+si],al
00001686  0000              add [bx+si],al
00001688  0000              add [bx+si],al
0000168A  0000              add [bx+si],al
0000168C  0000              add [bx+si],al
0000168E  0000              add [bx+si],al
00001690  0000              add [bx+si],al
00001692  0000              add [bx+si],al
00001694  0000              add [bx+si],al
00001696  0000              add [bx+si],al
00001698  0000              add [bx+si],al
0000169A  0000              add [bx+si],al
0000169C  0000              add [bx+si],al
0000169E  0000              add [bx+si],al
000016A0  0000              add [bx+si],al
000016A2  0000              add [bx+si],al
000016A4  0000              add [bx+si],al
000016A6  0000              add [bx+si],al
000016A8  0000              add [bx+si],al
000016AA  0000              add [bx+si],al
000016AC  0000              add [bx+si],al
000016AE  0000              add [bx+si],al
000016B0  0000              add [bx+si],al
000016B2  0000              add [bx+si],al
000016B4  0000              add [bx+si],al
000016B6  0000              add [bx+si],al
000016B8  0000              add [bx+si],al
000016BA  0000              add [bx+si],al
000016BC  0000              add [bx+si],al
000016BE  0000              add [bx+si],al
000016C0  0000              add [bx+si],al
000016C2  0000              add [bx+si],al
000016C4  0000              add [bx+si],al
000016C6  0000              add [bx+si],al
000016C8  0000              add [bx+si],al
000016CA  0000              add [bx+si],al
000016CC  0000              add [bx+si],al
000016CE  0000              add [bx+si],al
000016D0  0000              add [bx+si],al
000016D2  0000              add [bx+si],al
000016D4  0000              add [bx+si],al
000016D6  0000              add [bx+si],al
000016D8  0000              add [bx+si],al
000016DA  0000              add [bx+si],al
000016DC  0000              add [bx+si],al
000016DE  0000              add [bx+si],al
000016E0  0000              add [bx+si],al
000016E2  0000              add [bx+si],al
000016E4  0000              add [bx+si],al
000016E6  0000              add [bx+si],al
000016E8  0000              add [bx+si],al
000016EA  0000              add [bx+si],al
000016EC  0000              add [bx+si],al
000016EE  0000              add [bx+si],al
000016F0  0000              add [bx+si],al
000016F2  0000              add [bx+si],al
000016F4  0000              add [bx+si],al
000016F6  0000              add [bx+si],al
000016F8  0000              add [bx+si],al
000016FA  0000              add [bx+si],al
000016FC  0000              add [bx+si],al
000016FE  0000              add [bx+si],al
00001700  0000              add [bx+si],al
00001702  0000              add [bx+si],al
00001704  0000              add [bx+si],al
00001706  0000              add [bx+si],al
00001708  0000              add [bx+si],al
0000170A  0000              add [bx+si],al
0000170C  0000              add [bx+si],al
0000170E  0000              add [bx+si],al
00001710  0000              add [bx+si],al
00001712  0000              add [bx+si],al
00001714  0000              add [bx+si],al
00001716  0000              add [bx+si],al
00001718  0000              add [bx+si],al
0000171A  0000              add [bx+si],al
0000171C  0000              add [bx+si],al
0000171E  0000              add [bx+si],al
00001720  0000              add [bx+si],al
00001722  0000              add [bx+si],al
00001724  0000              add [bx+si],al
00001726  0000              add [bx+si],al
00001728  0000              add [bx+si],al
0000172A  0000              add [bx+si],al
0000172C  0000              add [bx+si],al
0000172E  0000              add [bx+si],al
00001730  0000              add [bx+si],al
00001732  0000              add [bx+si],al
00001734  0000              add [bx+si],al
00001736  0000              add [bx+si],al
00001738  0000              add [bx+si],al
0000173A  0000              add [bx+si],al
0000173C  0000              add [bx+si],al
0000173E  0000              add [bx+si],al
00001740  0000              add [bx+si],al
00001742  0000              add [bx+si],al
00001744  0000              add [bx+si],al
00001746  0000              add [bx+si],al
00001748  0000              add [bx+si],al
0000174A  0000              add [bx+si],al
0000174C  0000              add [bx+si],al
0000174E  0000              add [bx+si],al
00001750  0000              add [bx+si],al
00001752  0000              add [bx+si],al
00001754  0000              add [bx+si],al
00001756  0000              add [bx+si],al
00001758  0000              add [bx+si],al
0000175A  0000              add [bx+si],al
0000175C  0000              add [bx+si],al
0000175E  0000              add [bx+si],al
00001760  0000              add [bx+si],al
00001762  0000              add [bx+si],al
00001764  0000              add [bx+si],al
00001766  0000              add [bx+si],al
00001768  0000              add [bx+si],al
0000176A  0000              add [bx+si],al
0000176C  0000              add [bx+si],al
0000176E  0000              add [bx+si],al
00001770  0000              add [bx+si],al
00001772  0000              add [bx+si],al
00001774  0000              add [bx+si],al
00001776  0000              add [bx+si],al
00001778  0000              add [bx+si],al
0000177A  0000              add [bx+si],al
0000177C  0000              add [bx+si],al
0000177E  0000              add [bx+si],al
00001780  0000              add [bx+si],al
00001782  0000              add [bx+si],al
00001784  0000              add [bx+si],al
00001786  0000              add [bx+si],al
00001788  0000              add [bx+si],al
0000178A  0000              add [bx+si],al
0000178C  0000              add [bx+si],al
0000178E  0000              add [bx+si],al
00001790  0000              add [bx+si],al
00001792  0000              add [bx+si],al
00001794  0000              add [bx+si],al
00001796  0000              add [bx+si],al
00001798  0000              add [bx+si],al
0000179A  0000              add [bx+si],al
0000179C  0000              add [bx+si],al
0000179E  0000              add [bx+si],al
000017A0  0000              add [bx+si],al
000017A2  0000              add [bx+si],al
000017A4  0000              add [bx+si],al
000017A6  0000              add [bx+si],al
000017A8  0000              add [bx+si],al
000017AA  0000              add [bx+si],al
000017AC  0000              add [bx+si],al
000017AE  0000              add [bx+si],al
000017B0  0000              add [bx+si],al
000017B2  0000              add [bx+si],al
000017B4  0000              add [bx+si],al
000017B6  0000              add [bx+si],al
000017B8  0000              add [bx+si],al
000017BA  0000              add [bx+si],al
000017BC  0000              add [bx+si],al
000017BE  0000              add [bx+si],al
000017C0  0000              add [bx+si],al
000017C2  0000              add [bx+si],al
000017C4  0000              add [bx+si],al
000017C6  0000              add [bx+si],al
000017C8  0000              add [bx+si],al
000017CA  0000              add [bx+si],al
000017CC  0000              add [bx+si],al
000017CE  0000              add [bx+si],al
000017D0  0000              add [bx+si],al
000017D2  0000              add [bx+si],al
000017D4  0000              add [bx+si],al
000017D6  0000              add [bx+si],al
000017D8  0000              add [bx+si],al
000017DA  0000              add [bx+si],al
000017DC  0000              add [bx+si],al
000017DE  0000              add [bx+si],al
000017E0  0000              add [bx+si],al
000017E2  0000              add [bx+si],al
000017E4  0000              add [bx+si],al
000017E6  0000              add [bx+si],al
000017E8  0000              add [bx+si],al
000017EA  0000              add [bx+si],al
000017EC  0000              add [bx+si],al
000017EE  0000              add [bx+si],al
000017F0  0000              add [bx+si],al
000017F2  0000              add [bx+si],al
000017F4  0000              add [bx+si],al
000017F6  0000              add [bx+si],al
000017F8  0000              add [bx+si],al
000017FA  0000              add [bx+si],al
000017FC  0000              add [bx+si],al
000017FE  0000              add [bx+si],al
00001800  0000              add [bx+si],al
00001802  0000              add [bx+si],al
00001804  0000              add [bx+si],al
00001806  0000              add [bx+si],al
00001808  0000              add [bx+si],al
0000180A  0000              add [bx+si],al
0000180C  0000              add [bx+si],al
0000180E  0000              add [bx+si],al
00001810  0000              add [bx+si],al
00001812  0000              add [bx+si],al
00001814  0000              add [bx+si],al
00001816  0000              add [bx+si],al
00001818  0000              add [bx+si],al
0000181A  0000              add [bx+si],al
0000181C  0000              add [bx+si],al
0000181E  0000              add [bx+si],al
00001820  0000              add [bx+si],al
00001822  0000              add [bx+si],al
00001824  0000              add [bx+si],al
00001826  0000              add [bx+si],al
00001828  0000              add [bx+si],al
0000182A  0000              add [bx+si],al
0000182C  0000              add [bx+si],al
0000182E  0000              add [bx+si],al
00001830  0000              add [bx+si],al
00001832  0000              add [bx+si],al
00001834  0000              add [bx+si],al
00001836  0000              add [bx+si],al
00001838  0000              add [bx+si],al
0000183A  0000              add [bx+si],al
0000183C  0000              add [bx+si],al
0000183E  0000              add [bx+si],al
00001840  0000              add [bx+si],al
00001842  0000              add [bx+si],al
00001844  0000              add [bx+si],al
00001846  0000              add [bx+si],al
00001848  0000              add [bx+si],al
0000184A  0000              add [bx+si],al
0000184C  0000              add [bx+si],al
0000184E  0000              add [bx+si],al
00001850  0000              add [bx+si],al
00001852  0000              add [bx+si],al
00001854  0000              add [bx+si],al
00001856  0000              add [bx+si],al
00001858  0000              add [bx+si],al
0000185A  0000              add [bx+si],al
0000185C  0000              add [bx+si],al
0000185E  0000              add [bx+si],al
00001860  0000              add [bx+si],al
00001862  0000              add [bx+si],al
00001864  0000              add [bx+si],al
00001866  0000              add [bx+si],al
00001868  0000              add [bx+si],al
0000186A  0000              add [bx+si],al
0000186C  0000              add [bx+si],al
0000186E  0000              add [bx+si],al
00001870  0000              add [bx+si],al
00001872  0000              add [bx+si],al
00001874  0000              add [bx+si],al
00001876  0000              add [bx+si],al
00001878  0000              add [bx+si],al
0000187A  0000              add [bx+si],al
0000187C  0000              add [bx+si],al
0000187E  0000              add [bx+si],al
00001880  0000              add [bx+si],al
00001882  0000              add [bx+si],al
00001884  0000              add [bx+si],al
00001886  0000              add [bx+si],al
00001888  0000              add [bx+si],al
0000188A  0000              add [bx+si],al
0000188C  0000              add [bx+si],al
0000188E  0000              add [bx+si],al
00001890  0000              add [bx+si],al
00001892  0000              add [bx+si],al
00001894  0000              add [bx+si],al
00001896  0000              add [bx+si],al
00001898  0000              add [bx+si],al
0000189A  0000              add [bx+si],al
0000189C  0000              add [bx+si],al
0000189E  0000              add [bx+si],al
000018A0  0000              add [bx+si],al
000018A2  0000              add [bx+si],al
000018A4  0000              add [bx+si],al
000018A6  0000              add [bx+si],al
000018A8  0000              add [bx+si],al
000018AA  0000              add [bx+si],al
000018AC  0000              add [bx+si],al
000018AE  0000              add [bx+si],al
000018B0  0000              add [bx+si],al
000018B2  0000              add [bx+si],al
000018B4  0000              add [bx+si],al
000018B6  0000              add [bx+si],al
000018B8  0000              add [bx+si],al
000018BA  0000              add [bx+si],al
000018BC  0000              add [bx+si],al
000018BE  0000              add [bx+si],al
000018C0  0000              add [bx+si],al
000018C2  0000              add [bx+si],al
000018C4  0000              add [bx+si],al
000018C6  0000              add [bx+si],al
000018C8  0000              add [bx+si],al
000018CA  0000              add [bx+si],al
000018CC  0000              add [bx+si],al
000018CE  0000              add [bx+si],al
000018D0  0000              add [bx+si],al
000018D2  0000              add [bx+si],al
000018D4  0000              add [bx+si],al
000018D6  0000              add [bx+si],al
000018D8  0000              add [bx+si],al
000018DA  0000              add [bx+si],al
000018DC  0000              add [bx+si],al
000018DE  0000              add [bx+si],al
000018E0  0000              add [bx+si],al
000018E2  0000              add [bx+si],al
000018E4  0000              add [bx+si],al
000018E6  0000              add [bx+si],al
000018E8  0000              add [bx+si],al
000018EA  0000              add [bx+si],al
000018EC  0000              add [bx+si],al
000018EE  0000              add [bx+si],al
000018F0  0000              add [bx+si],al
000018F2  0000              add [bx+si],al
000018F4  0000              add [bx+si],al
000018F6  0000              add [bx+si],al
000018F8  0000              add [bx+si],al
000018FA  0000              add [bx+si],al
000018FC  0000              add [bx+si],al
000018FE  0000              add [bx+si],al
00001900  0000              add [bx+si],al
00001902  0000              add [bx+si],al
00001904  0000              add [bx+si],al
00001906  0000              add [bx+si],al
00001908  0000              add [bx+si],al
0000190A  0000              add [bx+si],al
0000190C  0000              add [bx+si],al
0000190E  0000              add [bx+si],al
00001910  0000              add [bx+si],al
00001912  0000              add [bx+si],al
00001914  0000              add [bx+si],al
00001916  0000              add [bx+si],al
00001918  0000              add [bx+si],al
0000191A  0000              add [bx+si],al
0000191C  0000              add [bx+si],al
0000191E  0000              add [bx+si],al
00001920  0000              add [bx+si],al
00001922  0000              add [bx+si],al
00001924  0000              add [bx+si],al
00001926  0000              add [bx+si],al
00001928  0000              add [bx+si],al
0000192A  0000              add [bx+si],al
0000192C  0000              add [bx+si],al
0000192E  0000              add [bx+si],al
00001930  0000              add [bx+si],al
00001932  0000              add [bx+si],al
00001934  0000              add [bx+si],al
00001936  0000              add [bx+si],al
00001938  0000              add [bx+si],al
0000193A  0000              add [bx+si],al
0000193C  0000              add [bx+si],al
0000193E  0000              add [bx+si],al
00001940  0000              add [bx+si],al
00001942  0000              add [bx+si],al
00001944  0000              add [bx+si],al
00001946  0000              add [bx+si],al
00001948  0000              add [bx+si],al
0000194A  0000              add [bx+si],al
0000194C  0000              add [bx+si],al
0000194E  0000              add [bx+si],al
00001950  0000              add [bx+si],al
00001952  0000              add [bx+si],al
00001954  0000              add [bx+si],al
00001956  0000              add [bx+si],al
00001958  0000              add [bx+si],al
0000195A  0000              add [bx+si],al
0000195C  0000              add [bx+si],al
0000195E  0000              add [bx+si],al
00001960  0000              add [bx+si],al
00001962  0000              add [bx+si],al
00001964  0000              add [bx+si],al
00001966  0000              add [bx+si],al
00001968  0000              add [bx+si],al
0000196A  0000              add [bx+si],al
0000196C  0000              add [bx+si],al
0000196E  0000              add [bx+si],al
00001970  0000              add [bx+si],al
00001972  0000              add [bx+si],al
00001974  0000              add [bx+si],al
00001976  0000              add [bx+si],al
00001978  0000              add [bx+si],al
0000197A  0000              add [bx+si],al
0000197C  0000              add [bx+si],al
0000197E  0000              add [bx+si],al
00001980  0000              add [bx+si],al
00001982  0000              add [bx+si],al
00001984  0000              add [bx+si],al
00001986  0000              add [bx+si],al
00001988  0000              add [bx+si],al
0000198A  0000              add [bx+si],al
0000198C  0000              add [bx+si],al
0000198E  0000              add [bx+si],al
00001990  0000              add [bx+si],al
00001992  0000              add [bx+si],al
00001994  0000              add [bx+si],al
00001996  0000              add [bx+si],al
00001998  0000              add [bx+si],al
0000199A  0000              add [bx+si],al
0000199C  0000              add [bx+si],al
0000199E  0000              add [bx+si],al
000019A0  0000              add [bx+si],al
000019A2  0000              add [bx+si],al
000019A4  0000              add [bx+si],al
000019A6  0000              add [bx+si],al
000019A8  0000              add [bx+si],al
000019AA  0000              add [bx+si],al
000019AC  0000              add [bx+si],al
000019AE  0000              add [bx+si],al
000019B0  0000              add [bx+si],al
000019B2  0000              add [bx+si],al
000019B4  0000              add [bx+si],al
000019B6  0000              add [bx+si],al
000019B8  0000              add [bx+si],al
000019BA  0000              add [bx+si],al
000019BC  0000              add [bx+si],al
000019BE  0000              add [bx+si],al
000019C0  0000              add [bx+si],al
000019C2  0000              add [bx+si],al
000019C4  0000              add [bx+si],al
000019C6  0000              add [bx+si],al
000019C8  0000              add [bx+si],al
000019CA  0000              add [bx+si],al
000019CC  0000              add [bx+si],al
000019CE  0000              add [bx+si],al
000019D0  0000              add [bx+si],al
000019D2  0000              add [bx+si],al
000019D4  0000              add [bx+si],al
000019D6  0000              add [bx+si],al
000019D8  0000              add [bx+si],al
000019DA  0000              add [bx+si],al
000019DC  0000              add [bx+si],al
000019DE  0000              add [bx+si],al
000019E0  0000              add [bx+si],al
000019E2  0000              add [bx+si],al
000019E4  0000              add [bx+si],al
000019E6  0000              add [bx+si],al
000019E8  0000              add [bx+si],al
000019EA  0000              add [bx+si],al
000019EC  0000              add [bx+si],al
000019EE  0000              add [bx+si],al
000019F0  0000              add [bx+si],al
000019F2  0000              add [bx+si],al
000019F4  0000              add [bx+si],al
000019F6  0000              add [bx+si],al
000019F8  0000              add [bx+si],al
000019FA  0000              add [bx+si],al
000019FC  0000              add [bx+si],al
000019FE  0000              add [bx+si],al
00001A00  0000              add [bx+si],al
00001A02  0000              add [bx+si],al
00001A04  0000              add [bx+si],al
00001A06  0000              add [bx+si],al
00001A08  0000              add [bx+si],al
00001A0A  0000              add [bx+si],al
00001A0C  0000              add [bx+si],al
00001A0E  0000              add [bx+si],al
00001A10  0000              add [bx+si],al
00001A12  0000              add [bx+si],al
00001A14  0000              add [bx+si],al
00001A16  0000              add [bx+si],al
00001A18  0000              add [bx+si],al
00001A1A  0000              add [bx+si],al
00001A1C  0000              add [bx+si],al
00001A1E  0000              add [bx+si],al
00001A20  0000              add [bx+si],al
00001A22  0000              add [bx+si],al
00001A24  0000              add [bx+si],al
00001A26  0000              add [bx+si],al
00001A28  0000              add [bx+si],al
00001A2A  0000              add [bx+si],al
00001A2C  0000              add [bx+si],al
00001A2E  0000              add [bx+si],al
00001A30  0000              add [bx+si],al
00001A32  0000              add [bx+si],al
00001A34  0000              add [bx+si],al
00001A36  0000              add [bx+si],al
00001A38  0000              add [bx+si],al
00001A3A  0000              add [bx+si],al
00001A3C  0000              add [bx+si],al
00001A3E  0000              add [bx+si],al
00001A40  0000              add [bx+si],al
00001A42  0000              add [bx+si],al
00001A44  0000              add [bx+si],al
00001A46  0000              add [bx+si],al
00001A48  0000              add [bx+si],al
00001A4A  0000              add [bx+si],al
00001A4C  0000              add [bx+si],al
00001A4E  0000              add [bx+si],al
00001A50  0000              add [bx+si],al
00001A52  0000              add [bx+si],al
00001A54  0000              add [bx+si],al
00001A56  0000              add [bx+si],al
00001A58  0000              add [bx+si],al
00001A5A  0000              add [bx+si],al
00001A5C  0000              add [bx+si],al
00001A5E  0000              add [bx+si],al
00001A60  0000              add [bx+si],al
00001A62  0000              add [bx+si],al
00001A64  0000              add [bx+si],al
00001A66  0000              add [bx+si],al
00001A68  0000              add [bx+si],al
00001A6A  0000              add [bx+si],al
00001A6C  0000              add [bx+si],al
00001A6E  0000              add [bx+si],al
00001A70  0000              add [bx+si],al
00001A72  0000              add [bx+si],al
00001A74  0000              add [bx+si],al
00001A76  0000              add [bx+si],al
00001A78  0000              add [bx+si],al
00001A7A  0000              add [bx+si],al
00001A7C  0000              add [bx+si],al
00001A7E  0000              add [bx+si],al
00001A80  0000              add [bx+si],al
00001A82  0000              add [bx+si],al
00001A84  0000              add [bx+si],al
00001A86  0000              add [bx+si],al
00001A88  0000              add [bx+si],al
00001A8A  0000              add [bx+si],al
00001A8C  0000              add [bx+si],al
00001A8E  0000              add [bx+si],al
00001A90  0000              add [bx+si],al
00001A92  0000              add [bx+si],al
00001A94  0000              add [bx+si],al
00001A96  0000              add [bx+si],al
00001A98  0000              add [bx+si],al
00001A9A  0000              add [bx+si],al
00001A9C  0000              add [bx+si],al
00001A9E  0000              add [bx+si],al
00001AA0  0000              add [bx+si],al
00001AA2  0000              add [bx+si],al
00001AA4  0000              add [bx+si],al
00001AA6  0000              add [bx+si],al
00001AA8  0000              add [bx+si],al
00001AAA  0000              add [bx+si],al
00001AAC  0000              add [bx+si],al
00001AAE  0000              add [bx+si],al
00001AB0  0000              add [bx+si],al
00001AB2  0000              add [bx+si],al
00001AB4  0000              add [bx+si],al
00001AB6  0000              add [bx+si],al
00001AB8  0000              add [bx+si],al
00001ABA  0000              add [bx+si],al
00001ABC  0000              add [bx+si],al
00001ABE  0000              add [bx+si],al
00001AC0  0000              add [bx+si],al
00001AC2  0000              add [bx+si],al
00001AC4  0000              add [bx+si],al
00001AC6  0000              add [bx+si],al
00001AC8  0000              add [bx+si],al
00001ACA  0000              add [bx+si],al
00001ACC  0000              add [bx+si],al
00001ACE  0000              add [bx+si],al
00001AD0  0000              add [bx+si],al
00001AD2  0000              add [bx+si],al
00001AD4  0000              add [bx+si],al
00001AD6  0000              add [bx+si],al
00001AD8  0000              add [bx+si],al
00001ADA  0000              add [bx+si],al
00001ADC  0000              add [bx+si],al
00001ADE  0000              add [bx+si],al
00001AE0  0000              add [bx+si],al
00001AE2  0000              add [bx+si],al
00001AE4  0000              add [bx+si],al
00001AE6  0000              add [bx+si],al
00001AE8  0000              add [bx+si],al
00001AEA  0000              add [bx+si],al
00001AEC  0000              add [bx+si],al
00001AEE  0000              add [bx+si],al
00001AF0  0000              add [bx+si],al
00001AF2  0000              add [bx+si],al
00001AF4  0000              add [bx+si],al
00001AF6  0000              add [bx+si],al
00001AF8  0000              add [bx+si],al
00001AFA  0000              add [bx+si],al
00001AFC  0000              add [bx+si],al
00001AFE  0000              add [bx+si],al
00001B00  0000              add [bx+si],al
00001B02  0000              add [bx+si],al
00001B04  0000              add [bx+si],al
00001B06  0000              add [bx+si],al
00001B08  0000              add [bx+si],al
00001B0A  0000              add [bx+si],al
00001B0C  0000              add [bx+si],al
00001B0E  0000              add [bx+si],al
00001B10  0000              add [bx+si],al
00001B12  0000              add [bx+si],al
00001B14  0000              add [bx+si],al
00001B16  0000              add [bx+si],al
00001B18  0000              add [bx+si],al
00001B1A  0000              add [bx+si],al
00001B1C  0000              add [bx+si],al
00001B1E  0000              add [bx+si],al
00001B20  0000              add [bx+si],al
00001B22  0000              add [bx+si],al
00001B24  0000              add [bx+si],al
00001B26  0000              add [bx+si],al
00001B28  0000              add [bx+si],al
00001B2A  0000              add [bx+si],al
00001B2C  0000              add [bx+si],al
00001B2E  0000              add [bx+si],al
00001B30  0000              add [bx+si],al
00001B32  0000              add [bx+si],al
00001B34  0000              add [bx+si],al
00001B36  0000              add [bx+si],al
00001B38  0000              add [bx+si],al
00001B3A  0000              add [bx+si],al
00001B3C  0000              add [bx+si],al
00001B3E  0000              add [bx+si],al
00001B40  0000              add [bx+si],al
00001B42  0000              add [bx+si],al
00001B44  0000              add [bx+si],al
00001B46  0000              add [bx+si],al
00001B48  0000              add [bx+si],al
00001B4A  0000              add [bx+si],al
00001B4C  0000              add [bx+si],al
00001B4E  0000              add [bx+si],al
00001B50  0000              add [bx+si],al
00001B52  0000              add [bx+si],al
00001B54  0000              add [bx+si],al
00001B56  0000              add [bx+si],al
00001B58  0000              add [bx+si],al
00001B5A  0000              add [bx+si],al
00001B5C  0000              add [bx+si],al
00001B5E  0000              add [bx+si],al
00001B60  0000              add [bx+si],al
00001B62  0000              add [bx+si],al
00001B64  0000              add [bx+si],al
00001B66  0000              add [bx+si],al
00001B68  0000              add [bx+si],al
00001B6A  0000              add [bx+si],al
00001B6C  0000              add [bx+si],al
00001B6E  0000              add [bx+si],al
00001B70  0000              add [bx+si],al
00001B72  0000              add [bx+si],al
00001B74  0000              add [bx+si],al
00001B76  0000              add [bx+si],al
00001B78  0000              add [bx+si],al
00001B7A  0000              add [bx+si],al
00001B7C  0000              add [bx+si],al
00001B7E  0000              add [bx+si],al
00001B80  0000              add [bx+si],al
00001B82  0000              add [bx+si],al
00001B84  0000              add [bx+si],al
00001B86  0000              add [bx+si],al
00001B88  0000              add [bx+si],al
00001B8A  0000              add [bx+si],al
00001B8C  0000              add [bx+si],al
00001B8E  0000              add [bx+si],al
00001B90  0000              add [bx+si],al
00001B92  0000              add [bx+si],al
00001B94  0000              add [bx+si],al
00001B96  0000              add [bx+si],al
00001B98  0000              add [bx+si],al
00001B9A  0000              add [bx+si],al
00001B9C  0000              add [bx+si],al
00001B9E  0000              add [bx+si],al
00001BA0  0000              add [bx+si],al
00001BA2  0000              add [bx+si],al
00001BA4  0000              add [bx+si],al
00001BA6  0000              add [bx+si],al
00001BA8  0000              add [bx+si],al
00001BAA  0000              add [bx+si],al
00001BAC  0000              add [bx+si],al
00001BAE  0000              add [bx+si],al
00001BB0  0000              add [bx+si],al
00001BB2  0000              add [bx+si],al
00001BB4  0000              add [bx+si],al
00001BB6  0000              add [bx+si],al
00001BB8  0000              add [bx+si],al
00001BBA  0000              add [bx+si],al
00001BBC  0000              add [bx+si],al
00001BBE  0000              add [bx+si],al
00001BC0  0000              add [bx+si],al
00001BC2  0000              add [bx+si],al
00001BC4  0000              add [bx+si],al
00001BC6  0000              add [bx+si],al
00001BC8  0000              add [bx+si],al
00001BCA  0000              add [bx+si],al
00001BCC  0000              add [bx+si],al
00001BCE  0000              add [bx+si],al
00001BD0  0000              add [bx+si],al
00001BD2  0000              add [bx+si],al
00001BD4  0000              add [bx+si],al
00001BD6  0000              add [bx+si],al
00001BD8  0000              add [bx+si],al
00001BDA  0000              add [bx+si],al
00001BDC  0000              add [bx+si],al
00001BDE  0000              add [bx+si],al
00001BE0  0000              add [bx+si],al
00001BE2  0000              add [bx+si],al
00001BE4  0000              add [bx+si],al
00001BE6  0000              add [bx+si],al
00001BE8  0000              add [bx+si],al
00001BEA  0000              add [bx+si],al
00001BEC  0000              add [bx+si],al
00001BEE  0000              add [bx+si],al
00001BF0  0000              add [bx+si],al
00001BF2  0000              add [bx+si],al
00001BF4  0000              add [bx+si],al
00001BF6  0000              add [bx+si],al
00001BF8  0000              add [bx+si],al
00001BFA  0000              add [bx+si],al
00001BFC  0000              add [bx+si],al
00001BFE  0000              add [bx+si],al
00001C00  0000              add [bx+si],al
00001C02  0000              add [bx+si],al
00001C04  0000              add [bx+si],al
00001C06  0000              add [bx+si],al
00001C08  0000              add [bx+si],al
00001C0A  0000              add [bx+si],al
00001C0C  0000              add [bx+si],al
00001C0E  0000              add [bx+si],al
00001C10  0000              add [bx+si],al
00001C12  0000              add [bx+si],al
00001C14  0000              add [bx+si],al
00001C16  0000              add [bx+si],al
00001C18  0000              add [bx+si],al
00001C1A  0000              add [bx+si],al
00001C1C  0000              add [bx+si],al
00001C1E  0000              add [bx+si],al
00001C20  0000              add [bx+si],al
00001C22  0000              add [bx+si],al
00001C24  0000              add [bx+si],al
00001C26  0000              add [bx+si],al
00001C28  0000              add [bx+si],al
00001C2A  0000              add [bx+si],al
00001C2C  0000              add [bx+si],al
00001C2E  0000              add [bx+si],al
00001C30  0000              add [bx+si],al
00001C32  0000              add [bx+si],al
00001C34  0000              add [bx+si],al
00001C36  0000              add [bx+si],al
00001C38  0000              add [bx+si],al
00001C3A  0000              add [bx+si],al
00001C3C  0000              add [bx+si],al
00001C3E  0000              add [bx+si],al
00001C40  0000              add [bx+si],al
00001C42  0000              add [bx+si],al
00001C44  0000              add [bx+si],al
00001C46  0000              add [bx+si],al
00001C48  0000              add [bx+si],al
00001C4A  0000              add [bx+si],al
00001C4C  0000              add [bx+si],al
00001C4E  0000              add [bx+si],al
00001C50  0000              add [bx+si],al
00001C52  0000              add [bx+si],al
00001C54  0000              add [bx+si],al
00001C56  0000              add [bx+si],al
00001C58  0000              add [bx+si],al
00001C5A  0000              add [bx+si],al
00001C5C  0000              add [bx+si],al
00001C5E  0000              add [bx+si],al
00001C60  0000              add [bx+si],al
00001C62  0000              add [bx+si],al
00001C64  0000              add [bx+si],al
00001C66  0000              add [bx+si],al
00001C68  0000              add [bx+si],al
00001C6A  0000              add [bx+si],al
00001C6C  0000              add [bx+si],al
00001C6E  0000              add [bx+si],al
00001C70  0000              add [bx+si],al
00001C72  0000              add [bx+si],al
00001C74  0000              add [bx+si],al
00001C76  0000              add [bx+si],al
00001C78  0000              add [bx+si],al
00001C7A  0000              add [bx+si],al
00001C7C  0000              add [bx+si],al
00001C7E  0000              add [bx+si],al
00001C80  0000              add [bx+si],al
00001C82  0000              add [bx+si],al
00001C84  0000              add [bx+si],al
00001C86  0000              add [bx+si],al
00001C88  0000              add [bx+si],al
00001C8A  0000              add [bx+si],al
00001C8C  0000              add [bx+si],al
00001C8E  0000              add [bx+si],al
00001C90  0000              add [bx+si],al
00001C92  0000              add [bx+si],al
00001C94  0000              add [bx+si],al
00001C96  0000              add [bx+si],al
00001C98  0000              add [bx+si],al
00001C9A  0000              add [bx+si],al
00001C9C  0000              add [bx+si],al
00001C9E  0000              add [bx+si],al
00001CA0  0000              add [bx+si],al
00001CA2  0000              add [bx+si],al
00001CA4  0000              add [bx+si],al
00001CA6  0000              add [bx+si],al
00001CA8  0000              add [bx+si],al
00001CAA  0000              add [bx+si],al
00001CAC  0000              add [bx+si],al
00001CAE  0000              add [bx+si],al
00001CB0  0000              add [bx+si],al
00001CB2  0000              add [bx+si],al
00001CB4  0000              add [bx+si],al
00001CB6  0000              add [bx+si],al
00001CB8  0000              add [bx+si],al
00001CBA  0000              add [bx+si],al
00001CBC  0000              add [bx+si],al
00001CBE  0000              add [bx+si],al
00001CC0  0000              add [bx+si],al
00001CC2  0000              add [bx+si],al
00001CC4  0000              add [bx+si],al
00001CC6  0000              add [bx+si],al
00001CC8  0000              add [bx+si],al
00001CCA  0000              add [bx+si],al
00001CCC  0000              add [bx+si],al
00001CCE  0000              add [bx+si],al
00001CD0  0000              add [bx+si],al
00001CD2  0000              add [bx+si],al
00001CD4  0000              add [bx+si],al
00001CD6  0000              add [bx+si],al
00001CD8  0000              add [bx+si],al
00001CDA  0000              add [bx+si],al
00001CDC  0000              add [bx+si],al
00001CDE  0000              add [bx+si],al
00001CE0  0000              add [bx+si],al
00001CE2  0000              add [bx+si],al
00001CE4  0000              add [bx+si],al
00001CE6  0000              add [bx+si],al
00001CE8  0000              add [bx+si],al
00001CEA  0000              add [bx+si],al
00001CEC  0000              add [bx+si],al
00001CEE  0000              add [bx+si],al
00001CF0  0000              add [bx+si],al
00001CF2  0000              add [bx+si],al
00001CF4  0000              add [bx+si],al
00001CF6  0000              add [bx+si],al
00001CF8  0000              add [bx+si],al
00001CFA  0000              add [bx+si],al
00001CFC  0000              add [bx+si],al
00001CFE  0000              add [bx+si],al
00001D00  0000              add [bx+si],al
00001D02  0000              add [bx+si],al
00001D04  0000              add [bx+si],al
00001D06  0000              add [bx+si],al
00001D08  0000              add [bx+si],al
00001D0A  0000              add [bx+si],al
00001D0C  0000              add [bx+si],al
00001D0E  0000              add [bx+si],al
00001D10  0000              add [bx+si],al
00001D12  0000              add [bx+si],al
00001D14  0000              add [bx+si],al
00001D16  0000              add [bx+si],al
00001D18  0000              add [bx+si],al
00001D1A  0000              add [bx+si],al
00001D1C  0000              add [bx+si],al
00001D1E  0000              add [bx+si],al
00001D20  0000              add [bx+si],al
00001D22  0000              add [bx+si],al
00001D24  0000              add [bx+si],al
00001D26  0000              add [bx+si],al
00001D28  0000              add [bx+si],al
00001D2A  0000              add [bx+si],al
00001D2C  0000              add [bx+si],al
00001D2E  0000              add [bx+si],al
00001D30  0000              add [bx+si],al
00001D32  0000              add [bx+si],al
00001D34  0000              add [bx+si],al
00001D36  0000              add [bx+si],al
00001D38  0000              add [bx+si],al
00001D3A  0000              add [bx+si],al
00001D3C  0000              add [bx+si],al
00001D3E  0000              add [bx+si],al
00001D40  0000              add [bx+si],al
00001D42  0000              add [bx+si],al
00001D44  0000              add [bx+si],al
00001D46  0000              add [bx+si],al
00001D48  0000              add [bx+si],al
00001D4A  0000              add [bx+si],al
00001D4C  0000              add [bx+si],al
00001D4E  0000              add [bx+si],al
00001D50  0000              add [bx+si],al
00001D52  0000              add [bx+si],al
00001D54  0000              add [bx+si],al
00001D56  0000              add [bx+si],al
00001D58  0000              add [bx+si],al
00001D5A  0000              add [bx+si],al
00001D5C  0000              add [bx+si],al
00001D5E  0000              add [bx+si],al
00001D60  0000              add [bx+si],al
00001D62  0000              add [bx+si],al
00001D64  0000              add [bx+si],al
00001D66  0000              add [bx+si],al
00001D68  0000              add [bx+si],al
00001D6A  0000              add [bx+si],al
00001D6C  0000              add [bx+si],al
00001D6E  0000              add [bx+si],al
00001D70  0000              add [bx+si],al
00001D72  0000              add [bx+si],al
00001D74  0000              add [bx+si],al
00001D76  0000              add [bx+si],al
00001D78  0000              add [bx+si],al
00001D7A  0000              add [bx+si],al
00001D7C  0000              add [bx+si],al
00001D7E  0000              add [bx+si],al
00001D80  0000              add [bx+si],al
00001D82  0000              add [bx+si],al
00001D84  0000              add [bx+si],al
00001D86  0000              add [bx+si],al
00001D88  0000              add [bx+si],al
00001D8A  0000              add [bx+si],al
00001D8C  0000              add [bx+si],al
00001D8E  0000              add [bx+si],al
00001D90  0000              add [bx+si],al
00001D92  0000              add [bx+si],al
00001D94  0000              add [bx+si],al
00001D96  0000              add [bx+si],al
00001D98  0000              add [bx+si],al
00001D9A  0000              add [bx+si],al
00001D9C  0000              add [bx+si],al
00001D9E  0000              add [bx+si],al
00001DA0  0000              add [bx+si],al
00001DA2  0000              add [bx+si],al
00001DA4  0000              add [bx+si],al
00001DA6  0000              add [bx+si],al
00001DA8  0000              add [bx+si],al
00001DAA  0000              add [bx+si],al
00001DAC  0000              add [bx+si],al
00001DAE  0000              add [bx+si],al
00001DB0  0000              add [bx+si],al
00001DB2  0000              add [bx+si],al
00001DB4  0000              add [bx+si],al
00001DB6  0000              add [bx+si],al
00001DB8  0000              add [bx+si],al
00001DBA  0000              add [bx+si],al
00001DBC  0000              add [bx+si],al
00001DBE  0000              add [bx+si],al
00001DC0  0000              add [bx+si],al
00001DC2  0000              add [bx+si],al
00001DC4  0000              add [bx+si],al
00001DC6  0000              add [bx+si],al
00001DC8  0000              add [bx+si],al
00001DCA  0000              add [bx+si],al
00001DCC  0000              add [bx+si],al
00001DCE  0000              add [bx+si],al
00001DD0  0000              add [bx+si],al
00001DD2  0000              add [bx+si],al
00001DD4  0000              add [bx+si],al
00001DD6  0000              add [bx+si],al
00001DD8  0000              add [bx+si],al
00001DDA  0000              add [bx+si],al
00001DDC  0000              add [bx+si],al
00001DDE  0000              add [bx+si],al
00001DE0  0000              add [bx+si],al
00001DE2  0000              add [bx+si],al
00001DE4  0000              add [bx+si],al
00001DE6  0000              add [bx+si],al
00001DE8  0000              add [bx+si],al
00001DEA  0000              add [bx+si],al
00001DEC  0000              add [bx+si],al
00001DEE  0000              add [bx+si],al
00001DF0  0000              add [bx+si],al
00001DF2  0000              add [bx+si],al
00001DF4  0000              add [bx+si],al
00001DF6  0000              add [bx+si],al
00001DF8  0000              add [bx+si],al
00001DFA  0000              add [bx+si],al
00001DFC  0000              add [bx+si],al
00001DFE  0000              add [bx+si],al
00001E00  0000              add [bx+si],al
00001E02  0000              add [bx+si],al
00001E04  0000              add [bx+si],al
00001E06  0000              add [bx+si],al
00001E08  0000              add [bx+si],al
00001E0A  0000              add [bx+si],al
00001E0C  0000              add [bx+si],al
00001E0E  0000              add [bx+si],al
00001E10  0000              add [bx+si],al
00001E12  0000              add [bx+si],al
00001E14  0000              add [bx+si],al
00001E16  0000              add [bx+si],al
00001E18  0000              add [bx+si],al
00001E1A  0000              add [bx+si],al
00001E1C  0000              add [bx+si],al
00001E1E  0000              add [bx+si],al
00001E20  0000              add [bx+si],al
00001E22  0000              add [bx+si],al
00001E24  0000              add [bx+si],al
00001E26  0000              add [bx+si],al
00001E28  0000              add [bx+si],al
00001E2A  0000              add [bx+si],al
00001E2C  0000              add [bx+si],al
00001E2E  0000              add [bx+si],al
00001E30  0000              add [bx+si],al
00001E32  0000              add [bx+si],al
00001E34  0000              add [bx+si],al
00001E36  0000              add [bx+si],al
00001E38  0000              add [bx+si],al
00001E3A  0000              add [bx+si],al
00001E3C  0000              add [bx+si],al
00001E3E  0000              add [bx+si],al
00001E40  0000              add [bx+si],al
00001E42  0000              add [bx+si],al
00001E44  0000              add [bx+si],al
00001E46  0000              add [bx+si],al
00001E48  0000              add [bx+si],al
00001E4A  0000              add [bx+si],al
00001E4C  0000              add [bx+si],al
00001E4E  0000              add [bx+si],al
00001E50  0000              add [bx+si],al
00001E52  0000              add [bx+si],al
00001E54  0000              add [bx+si],al
00001E56  0000              add [bx+si],al
00001E58  0000              add [bx+si],al
00001E5A  0000              add [bx+si],al
00001E5C  0000              add [bx+si],al
00001E5E  0000              add [bx+si],al
00001E60  0000              add [bx+si],al
00001E62  0000              add [bx+si],al
00001E64  0000              add [bx+si],al
00001E66  0000              add [bx+si],al
00001E68  0000              add [bx+si],al
00001E6A  0000              add [bx+si],al
00001E6C  0000              add [bx+si],al
00001E6E  0000              add [bx+si],al
00001E70  0000              add [bx+si],al
00001E72  0000              add [bx+si],al
00001E74  0000              add [bx+si],al
00001E76  0000              add [bx+si],al
00001E78  0000              add [bx+si],al
00001E7A  0000              add [bx+si],al
00001E7C  0000              add [bx+si],al
00001E7E  0000              add [bx+si],al
00001E80  0000              add [bx+si],al
00001E82  0000              add [bx+si],al
00001E84  0000              add [bx+si],al
00001E86  0000              add [bx+si],al
00001E88  0000              add [bx+si],al
00001E8A  0000              add [bx+si],al
00001E8C  0000              add [bx+si],al
00001E8E  0000              add [bx+si],al
00001E90  0000              add [bx+si],al
00001E92  0000              add [bx+si],al
00001E94  0000              add [bx+si],al
00001E96  0000              add [bx+si],al
00001E98  0000              add [bx+si],al
00001E9A  0000              add [bx+si],al
00001E9C  0000              add [bx+si],al
00001E9E  0000              add [bx+si],al
00001EA0  0000              add [bx+si],al
00001EA2  0000              add [bx+si],al
00001EA4  0000              add [bx+si],al
00001EA6  0000              add [bx+si],al
00001EA8  0000              add [bx+si],al
00001EAA  0000              add [bx+si],al
00001EAC  0000              add [bx+si],al
00001EAE  0000              add [bx+si],al
00001EB0  0000              add [bx+si],al
00001EB2  0000              add [bx+si],al
00001EB4  0000              add [bx+si],al
00001EB6  0000              add [bx+si],al
00001EB8  0000              add [bx+si],al
00001EBA  0000              add [bx+si],al
00001EBC  0000              add [bx+si],al
00001EBE  0000              add [bx+si],al
00001EC0  0000              add [bx+si],al
00001EC2  0000              add [bx+si],al
00001EC4  0000              add [bx+si],al
00001EC6  0000              add [bx+si],al
00001EC8  0000              add [bx+si],al
00001ECA  0000              add [bx+si],al
00001ECC  0000              add [bx+si],al
00001ECE  0000              add [bx+si],al
00001ED0  0000              add [bx+si],al
00001ED2  0000              add [bx+si],al
00001ED4  0000              add [bx+si],al
00001ED6  0000              add [bx+si],al
00001ED8  0000              add [bx+si],al
00001EDA  0000              add [bx+si],al
00001EDC  0000              add [bx+si],al
00001EDE  0000              add [bx+si],al
00001EE0  0000              add [bx+si],al
00001EE2  0000              add [bx+si],al
00001EE4  0000              add [bx+si],al
00001EE6  0000              add [bx+si],al
00001EE8  0000              add [bx+si],al
00001EEA  0000              add [bx+si],al
00001EEC  0000              add [bx+si],al
00001EEE  0000              add [bx+si],al
00001EF0  0000              add [bx+si],al
00001EF2  0000              add [bx+si],al
00001EF4  0000              add [bx+si],al
00001EF6  0000              add [bx+si],al
00001EF8  0000              add [bx+si],al
00001EFA  0000              add [bx+si],al
00001EFC  0000              add [bx+si],al
00001EFE  0000              add [bx+si],al
00001F00  0000              add [bx+si],al
00001F02  0000              add [bx+si],al
00001F04  0000              add [bx+si],al
00001F06  0000              add [bx+si],al
00001F08  0000              add [bx+si],al
00001F0A  0000              add [bx+si],al
00001F0C  0000              add [bx+si],al
00001F0E  0000              add [bx+si],al
00001F10  0000              add [bx+si],al
00001F12  0000              add [bx+si],al
00001F14  0000              add [bx+si],al
00001F16  0000              add [bx+si],al
00001F18  0000              add [bx+si],al
00001F1A  0000              add [bx+si],al
00001F1C  0000              add [bx+si],al
00001F1E  0000              add [bx+si],al
00001F20  0000              add [bx+si],al
00001F22  0000              add [bx+si],al
00001F24  0000              add [bx+si],al
00001F26  0000              add [bx+si],al
00001F28  0000              add [bx+si],al
00001F2A  0000              add [bx+si],al
00001F2C  0000              add [bx+si],al
00001F2E  0000              add [bx+si],al
00001F30  0000              add [bx+si],al
00001F32  0000              add [bx+si],al
00001F34  0000              add [bx+si],al
00001F36  0000              add [bx+si],al
00001F38  0000              add [bx+si],al
00001F3A  0000              add [bx+si],al
00001F3C  0000              add [bx+si],al
00001F3E  0000              add [bx+si],al
00001F40  0000              add [bx+si],al
00001F42  0000              add [bx+si],al
00001F44  0000              add [bx+si],al
00001F46  0000              add [bx+si],al
00001F48  0000              add [bx+si],al
00001F4A  0000              add [bx+si],al
00001F4C  0000              add [bx+si],al
00001F4E  0000              add [bx+si],al
00001F50  0000              add [bx+si],al
00001F52  0000              add [bx+si],al
00001F54  0000              add [bx+si],al
00001F56  0000              add [bx+si],al
00001F58  0000              add [bx+si],al
00001F5A  0000              add [bx+si],al
00001F5C  0000              add [bx+si],al
00001F5E  0000              add [bx+si],al
00001F60  0000              add [bx+si],al
00001F62  0000              add [bx+si],al
00001F64  0000              add [bx+si],al
00001F66  0000              add [bx+si],al
00001F68  0000              add [bx+si],al
00001F6A  0000              add [bx+si],al
00001F6C  0000              add [bx+si],al
00001F6E  0000              add [bx+si],al
00001F70  0000              add [bx+si],al
00001F72  0000              add [bx+si],al
00001F74  0000              add [bx+si],al
00001F76  0000              add [bx+si],al
00001F78  0000              add [bx+si],al
00001F7A  0000              add [bx+si],al
00001F7C  0000              add [bx+si],al
00001F7E  0000              add [bx+si],al
00001F80  0000              add [bx+si],al
00001F82  0000              add [bx+si],al
00001F84  0000              add [bx+si],al
00001F86  0000              add [bx+si],al
00001F88  0000              add [bx+si],al
00001F8A  0000              add [bx+si],al
00001F8C  0000              add [bx+si],al
00001F8E  0000              add [bx+si],al
00001F90  0000              add [bx+si],al
00001F92  0000              add [bx+si],al
00001F94  0000              add [bx+si],al
00001F96  0000              add [bx+si],al
00001F98  0000              add [bx+si],al
00001F9A  0000              add [bx+si],al
00001F9C  0000              add [bx+si],al
00001F9E  0000              add [bx+si],al
00001FA0  0000              add [bx+si],al
00001FA2  0000              add [bx+si],al
00001FA4  0000              add [bx+si],al
00001FA6  0000              add [bx+si],al
00001FA8  0000              add [bx+si],al
00001FAA  0000              add [bx+si],al
00001FAC  0000              add [bx+si],al
00001FAE  0000              add [bx+si],al
00001FB0  0000              add [bx+si],al
00001FB2  0000              add [bx+si],al
00001FB4  0000              add [bx+si],al
00001FB6  0000              add [bx+si],al
00001FB8  0000              add [bx+si],al
00001FBA  0000              add [bx+si],al
00001FBC  0000              add [bx+si],al
00001FBE  0000              add [bx+si],al
00001FC0  0000              add [bx+si],al
00001FC2  0000              add [bx+si],al
00001FC4  0000              add [bx+si],al
00001FC6  0000              add [bx+si],al
00001FC8  0000              add [bx+si],al
00001FCA  0000              add [bx+si],al
00001FCC  0000              add [bx+si],al
00001FCE  0000              add [bx+si],al
00001FD0  0000              add [bx+si],al
00001FD2  0000              add [bx+si],al
00001FD4  0000              add [bx+si],al
00001FD6  0000              add [bx+si],al
00001FD8  0000              add [bx+si],al
00001FDA  0000              add [bx+si],al
00001FDC  0000              add [bx+si],al
00001FDE  0000              add [bx+si],al
00001FE0  0000              add [bx+si],al
00001FE2  0000              add [bx+si],al
00001FE4  0000              add [bx+si],al
00001FE6  0000              add [bx+si],al
00001FE8  0000              add [bx+si],al
00001FEA  0000              add [bx+si],al
00001FEC  0000              add [bx+si],al
00001FEE  0000              add [bx+si],al
00001FF0  0000              add [bx+si],al
00001FF2  0000              add [bx+si],al
00001FF4  0000              add [bx+si],al
00001FF6  0000              add [bx+si],al
00001FF8  0000              add [bx+si],al
00001FFA  0000              add [bx+si],al
00001FFC  0000              add [bx+si],al
00001FFE  0000              add [bx+si],al
00002000  EBFE              jmp short 0x2000
00002002  0000              add [bx+si],al
00002004  0000              add [bx+si],al
00002006  0000              add [bx+si],al
00002008  0000              add [bx+si],al
0000200A  0000              add [bx+si],al
0000200C  0000              add [bx+si],al
0000200E  0000              add [bx+si],al
00002010  0000              add [bx+si],al
00002012  0000              add [bx+si],al
00002014  0000              add [bx+si],al
00002016  0000              add [bx+si],al
00002018  0000              add [bx+si],al
0000201A  0000              add [bx+si],al
0000201C  0000              add [bx+si],al
0000201E  0000              add [bx+si],al
00002020  0000              add [bx+si],al
00002022  0000              add [bx+si],al
00002024  0000              add [bx+si],al
00002026  0000              add [bx+si],al
00002028  0000              add [bx+si],al
0000202A  0000              add [bx+si],al
0000202C  0000              add [bx+si],al
0000202E  0000              add [bx+si],al
00002030  0000              add [bx+si],al
00002032  0000              add [bx+si],al
00002034  0000              add [bx+si],al
00002036  0000              add [bx+si],al
00002038  0000              add [bx+si],al
0000203A  0000              add [bx+si],al
0000203C  0000              add [bx+si],al
0000203E  0000              add [bx+si],al
00002040  0000              add [bx+si],al
00002042  0000              add [bx+si],al
00002044  0000              add [bx+si],al
00002046  0000              add [bx+si],al
00002048  0000              add [bx+si],al
0000204A  0000              add [bx+si],al
0000204C  0000              add [bx+si],al
0000204E  0000              add [bx+si],al
00002050  0000              add [bx+si],al
00002052  0000              add [bx+si],al
00002054  0000              add [bx+si],al
00002056  0000              add [bx+si],al
00002058  0000              add [bx+si],al
0000205A  0000              add [bx+si],al
0000205C  0000              add [bx+si],al
0000205E  0000              add [bx+si],al
00002060  0000              add [bx+si],al
00002062  0000              add [bx+si],al
00002064  0000              add [bx+si],al
00002066  0000              add [bx+si],al
00002068  0000              add [bx+si],al
0000206A  0000              add [bx+si],al
0000206C  0000              add [bx+si],al
0000206E  0000              add [bx+si],al
00002070  0000              add [bx+si],al
00002072  0000              add [bx+si],al
00002074  0000              add [bx+si],al
00002076  0000              add [bx+si],al
00002078  0000              add [bx+si],al
0000207A  0000              add [bx+si],al
0000207C  0000              add [bx+si],al
0000207E  0000              add [bx+si],al
00002080  0000              add [bx+si],al
00002082  0000              add [bx+si],al
00002084  0000              add [bx+si],al
00002086  0000              add [bx+si],al
00002088  0000              add [bx+si],al
0000208A  0000              add [bx+si],al
0000208C  0000              add [bx+si],al
0000208E  0000              add [bx+si],al
00002090  0000              add [bx+si],al
00002092  0000              add [bx+si],al
00002094  0000              add [bx+si],al
00002096  0000              add [bx+si],al
00002098  0000              add [bx+si],al
0000209A  0000              add [bx+si],al
0000209C  0000              add [bx+si],al
0000209E  0000              add [bx+si],al
000020A0  0000              add [bx+si],al
000020A2  0000              add [bx+si],al
000020A4  0000              add [bx+si],al
000020A6  0000              add [bx+si],al
000020A8  0000              add [bx+si],al
000020AA  0000              add [bx+si],al
000020AC  0000              add [bx+si],al
000020AE  0000              add [bx+si],al
000020B0  0000              add [bx+si],al
000020B2  0000              add [bx+si],al
000020B4  0000              add [bx+si],al
000020B6  0000              add [bx+si],al
000020B8  0000              add [bx+si],al
000020BA  0000              add [bx+si],al
000020BC  0000              add [bx+si],al
000020BE  0000              add [bx+si],al
000020C0  0000              add [bx+si],al
000020C2  0000              add [bx+si],al
000020C4  0000              add [bx+si],al
000020C6  0000              add [bx+si],al
000020C8  0000              add [bx+si],al
000020CA  0000              add [bx+si],al
000020CC  0000              add [bx+si],al
000020CE  0000              add [bx+si],al
000020D0  0000              add [bx+si],al
000020D2  0000              add [bx+si],al
000020D4  0000              add [bx+si],al
000020D6  0000              add [bx+si],al
000020D8  0000              add [bx+si],al
000020DA  0000              add [bx+si],al
000020DC  0000              add [bx+si],al
000020DE  0000              add [bx+si],al
000020E0  0000              add [bx+si],al
000020E2  0000              add [bx+si],al
000020E4  0000              add [bx+si],al
000020E6  0000              add [bx+si],al
000020E8  0000              add [bx+si],al
000020EA  0000              add [bx+si],al
000020EC  0000              add [bx+si],al
000020EE  0000              add [bx+si],al
000020F0  0000              add [bx+si],al
000020F2  0000              add [bx+si],al
000020F4  0000              add [bx+si],al
000020F6  0000              add [bx+si],al
000020F8  0000              add [bx+si],al
000020FA  0000              add [bx+si],al
000020FC  0000              add [bx+si],al
000020FE  0000              add [bx+si],al
00002100  0000              add [bx+si],al
00002102  0000              add [bx+si],al
00002104  0000              add [bx+si],al
00002106  0000              add [bx+si],al
00002108  0000              add [bx+si],al
0000210A  0000              add [bx+si],al
0000210C  0000              add [bx+si],al
0000210E  0000              add [bx+si],al
00002110  0000              add [bx+si],al
00002112  0000              add [bx+si],al
00002114  0000              add [bx+si],al
00002116  0000              add [bx+si],al
00002118  0000              add [bx+si],al
0000211A  0000              add [bx+si],al
0000211C  0000              add [bx+si],al
0000211E  0000              add [bx+si],al
00002120  0000              add [bx+si],al
00002122  0000              add [bx+si],al
00002124  0000              add [bx+si],al
00002126  0000              add [bx+si],al
00002128  0000              add [bx+si],al
0000212A  0000              add [bx+si],al
0000212C  0000              add [bx+si],al
0000212E  0000              add [bx+si],al
00002130  0000              add [bx+si],al
00002132  0000              add [bx+si],al
00002134  0000              add [bx+si],al
00002136  0000              add [bx+si],al
00002138  0000              add [bx+si],al
0000213A  0000              add [bx+si],al
0000213C  0000              add [bx+si],al
0000213E  0000              add [bx+si],al
00002140  0000              add [bx+si],al
00002142  0000              add [bx+si],al
00002144  0000              add [bx+si],al
00002146  0000              add [bx+si],al
00002148  0000              add [bx+si],al
0000214A  0000              add [bx+si],al
0000214C  0000              add [bx+si],al
0000214E  0000              add [bx+si],al
00002150  0000              add [bx+si],al
00002152  0000              add [bx+si],al
00002154  0000              add [bx+si],al
00002156  0000              add [bx+si],al
00002158  0000              add [bx+si],al
0000215A  0000              add [bx+si],al
0000215C  0000              add [bx+si],al
0000215E  0000              add [bx+si],al
00002160  0000              add [bx+si],al
00002162  0000              add [bx+si],al
00002164  0000              add [bx+si],al
00002166  0000              add [bx+si],al
00002168  0000              add [bx+si],al
0000216A  0000              add [bx+si],al
0000216C  0000              add [bx+si],al
0000216E  0000              add [bx+si],al
00002170  0000              add [bx+si],al
00002172  0000              add [bx+si],al
00002174  0000              add [bx+si],al
00002176  0000              add [bx+si],al
00002178  0000              add [bx+si],al
0000217A  0000              add [bx+si],al
0000217C  0000              add [bx+si],al
0000217E  0000              add [bx+si],al
00002180  0000              add [bx+si],al
00002182  0000              add [bx+si],al
00002184  0000              add [bx+si],al
00002186  0000              add [bx+si],al
00002188  0000              add [bx+si],al
0000218A  0000              add [bx+si],al
0000218C  0000              add [bx+si],al
0000218E  0000              add [bx+si],al
00002190  0000              add [bx+si],al
00002192  0000              add [bx+si],al
00002194  0000              add [bx+si],al
00002196  0000              add [bx+si],al
00002198  0000              add [bx+si],al
0000219A  0000              add [bx+si],al
0000219C  0000              add [bx+si],al
0000219E  0000              add [bx+si],al
000021A0  0000              add [bx+si],al
000021A2  0000              add [bx+si],al
000021A4  0000              add [bx+si],al
000021A6  0000              add [bx+si],al
000021A8  0000              add [bx+si],al
000021AA  0000              add [bx+si],al
000021AC  0000              add [bx+si],al
000021AE  0000              add [bx+si],al
000021B0  0000              add [bx+si],al
000021B2  0000              add [bx+si],al
000021B4  0000              add [bx+si],al
000021B6  0000              add [bx+si],al
000021B8  0000              add [bx+si],al
000021BA  0000              add [bx+si],al
000021BC  0000              add [bx+si],al
000021BE  0000              add [bx+si],al
000021C0  0000              add [bx+si],al
000021C2  0000              add [bx+si],al
000021C4  0000              add [bx+si],al
000021C6  0000              add [bx+si],al
000021C8  0000              add [bx+si],al
000021CA  0000              add [bx+si],al
000021CC  0000              add [bx+si],al
000021CE  0000              add [bx+si],al
000021D0  0000              add [bx+si],al
000021D2  0000              add [bx+si],al
000021D4  0000              add [bx+si],al
000021D6  0000              add [bx+si],al
000021D8  0000              add [bx+si],al
000021DA  0000              add [bx+si],al
000021DC  0000              add [bx+si],al
000021DE  0000              add [bx+si],al
000021E0  0000              add [bx+si],al
000021E2  0000              add [bx+si],al
000021E4  0000              add [bx+si],al
000021E6  0000              add [bx+si],al
000021E8  0000              add [bx+si],al
000021EA  0000              add [bx+si],al
000021EC  0000              add [bx+si],al
000021EE  0000              add [bx+si],al
000021F0  0000              add [bx+si],al
000021F2  0000              add [bx+si],al
000021F4  0000              add [bx+si],al
000021F6  0000              add [bx+si],al
000021F8  0000              add [bx+si],al
000021FA  0000              add [bx+si],al
000021FC  0000              add [bx+si],al
000021FE  0000              add [bx+si],al
00002200  0000              add [bx+si],al
00002202  0000              add [bx+si],al
00002204  0000              add [bx+si],al
00002206  0000              add [bx+si],al
00002208  0000              add [bx+si],al
0000220A  0000              add [bx+si],al
0000220C  0000              add [bx+si],al
0000220E  0000              add [bx+si],al
00002210  0000              add [bx+si],al
00002212  0000              add [bx+si],al
00002214  0000              add [bx+si],al
00002216  0000              add [bx+si],al
00002218  0000              add [bx+si],al
0000221A  0000              add [bx+si],al
0000221C  0000              add [bx+si],al
0000221E  0000              add [bx+si],al
00002220  0000              add [bx+si],al
00002222  0000              add [bx+si],al
00002224  0000              add [bx+si],al
00002226  0000              add [bx+si],al
00002228  0000              add [bx+si],al
0000222A  0000              add [bx+si],al
0000222C  0000              add [bx+si],al
0000222E  0000              add [bx+si],al
00002230  0000              add [bx+si],al
00002232  0000              add [bx+si],al
00002234  0000              add [bx+si],al
00002236  0000              add [bx+si],al
00002238  0000              add [bx+si],al
0000223A  0000              add [bx+si],al
0000223C  0000              add [bx+si],al
0000223E  0000              add [bx+si],al
00002240  0000              add [bx+si],al
00002242  0000              add [bx+si],al
00002244  0000              add [bx+si],al
00002246  0000              add [bx+si],al
00002248  0000              add [bx+si],al
0000224A  0000              add [bx+si],al
0000224C  0000              add [bx+si],al
0000224E  0000              add [bx+si],al
00002250  0000              add [bx+si],al
00002252  0000              add [bx+si],al
00002254  0000              add [bx+si],al
00002256  0000              add [bx+si],al
00002258  0000              add [bx+si],al
0000225A  0000              add [bx+si],al
0000225C  0000              add [bx+si],al
0000225E  0000              add [bx+si],al
00002260  0000              add [bx+si],al
00002262  0000              add [bx+si],al
00002264  0000              add [bx+si],al
00002266  0000              add [bx+si],al
00002268  0000              add [bx+si],al
0000226A  0000              add [bx+si],al
0000226C  0000              add [bx+si],al
0000226E  0000              add [bx+si],al
00002270  0000              add [bx+si],al
00002272  0000              add [bx+si],al
00002274  0000              add [bx+si],al
00002276  0000              add [bx+si],al
00002278  0000              add [bx+si],al
0000227A  0000              add [bx+si],al
0000227C  0000              add [bx+si],al
0000227E  0000              add [bx+si],al
00002280  0000              add [bx+si],al
00002282  0000              add [bx+si],al
00002284  0000              add [bx+si],al
00002286  0000              add [bx+si],al
00002288  0000              add [bx+si],al
0000228A  0000              add [bx+si],al
0000228C  0000              add [bx+si],al
0000228E  0000              add [bx+si],al
00002290  0000              add [bx+si],al
00002292  0000              add [bx+si],al
00002294  0000              add [bx+si],al
00002296  0000              add [bx+si],al
00002298  0000              add [bx+si],al
0000229A  0000              add [bx+si],al
0000229C  0000              add [bx+si],al
0000229E  0000              add [bx+si],al
000022A0  0000              add [bx+si],al
000022A2  0000              add [bx+si],al
000022A4  0000              add [bx+si],al
000022A6  0000              add [bx+si],al
000022A8  0000              add [bx+si],al
000022AA  0000              add [bx+si],al
000022AC  0000              add [bx+si],al
000022AE  0000              add [bx+si],al
000022B0  0000              add [bx+si],al
000022B2  0000              add [bx+si],al
000022B4  0000              add [bx+si],al
000022B6  0000              add [bx+si],al
000022B8  0000              add [bx+si],al
000022BA  0000              add [bx+si],al
000022BC  0000              add [bx+si],al
000022BE  0000              add [bx+si],al
000022C0  0000              add [bx+si],al
000022C2  0000              add [bx+si],al
000022C4  0000              add [bx+si],al
000022C6  0000              add [bx+si],al
000022C8  0000              add [bx+si],al
000022CA  0000              add [bx+si],al
000022CC  0000              add [bx+si],al
000022CE  0000              add [bx+si],al
000022D0  0000              add [bx+si],al
000022D2  0000              add [bx+si],al
000022D4  0000              add [bx+si],al
000022D6  0000              add [bx+si],al
000022D8  0000              add [bx+si],al
000022DA  0000              add [bx+si],al
000022DC  0000              add [bx+si],al
000022DE  0000              add [bx+si],al
000022E0  0000              add [bx+si],al
000022E2  0000              add [bx+si],al
000022E4  0000              add [bx+si],al
000022E6  0000              add [bx+si],al
000022E8  0000              add [bx+si],al
000022EA  0000              add [bx+si],al
000022EC  0000              add [bx+si],al
000022EE  0000              add [bx+si],al
000022F0  0000              add [bx+si],al
000022F2  0000              add [bx+si],al
000022F4  0000              add [bx+si],al
000022F6  0000              add [bx+si],al
000022F8  0000              add [bx+si],al
000022FA  0000              add [bx+si],al
000022FC  0000              add [bx+si],al
000022FE  0000              add [bx+si],al
00002300  0000              add [bx+si],al
00002302  0000              add [bx+si],al
00002304  0000              add [bx+si],al
00002306  0000              add [bx+si],al
00002308  0000              add [bx+si],al
0000230A  0000              add [bx+si],al
0000230C  0000              add [bx+si],al
0000230E  0000              add [bx+si],al
00002310  0000              add [bx+si],al
00002312  0000              add [bx+si],al
00002314  0000              add [bx+si],al
00002316  0000              add [bx+si],al
00002318  0000              add [bx+si],al
0000231A  0000              add [bx+si],al
0000231C  0000              add [bx+si],al
0000231E  0000              add [bx+si],al
00002320  0000              add [bx+si],al
00002322  0000              add [bx+si],al
00002324  0000              add [bx+si],al
00002326  0000              add [bx+si],al
00002328  0000              add [bx+si],al
0000232A  0000              add [bx+si],al
0000232C  0000              add [bx+si],al
0000232E  0000              add [bx+si],al
00002330  0000              add [bx+si],al
00002332  0000              add [bx+si],al
00002334  0000              add [bx+si],al
00002336  0000              add [bx+si],al
00002338  0000              add [bx+si],al
0000233A  0000              add [bx+si],al
0000233C  0000              add [bx+si],al
0000233E  0000              add [bx+si],al
00002340  0000              add [bx+si],al
00002342  0000              add [bx+si],al
00002344  0000              add [bx+si],al
00002346  0000              add [bx+si],al
00002348  0000              add [bx+si],al
0000234A  0000              add [bx+si],al
0000234C  0000              add [bx+si],al
0000234E  0000              add [bx+si],al
00002350  0000              add [bx+si],al
00002352  0000              add [bx+si],al
00002354  0000              add [bx+si],al
00002356  0000              add [bx+si],al
00002358  0000              add [bx+si],al
0000235A  0000              add [bx+si],al
0000235C  0000              add [bx+si],al
0000235E  0000              add [bx+si],al
00002360  0000              add [bx+si],al
00002362  0000              add [bx+si],al
00002364  0000              add [bx+si],al
00002366  0000              add [bx+si],al
00002368  0000              add [bx+si],al
0000236A  0000              add [bx+si],al
0000236C  0000              add [bx+si],al
0000236E  0000              add [bx+si],al
00002370  0000              add [bx+si],al
00002372  0000              add [bx+si],al
00002374  0000              add [bx+si],al
00002376  0000              add [bx+si],al
00002378  0000              add [bx+si],al
0000237A  0000              add [bx+si],al
0000237C  0000              add [bx+si],al
0000237E  0000              add [bx+si],al
00002380  0000              add [bx+si],al
00002382  0000              add [bx+si],al
00002384  0000              add [bx+si],al
00002386  0000              add [bx+si],al
00002388  0000              add [bx+si],al
0000238A  0000              add [bx+si],al
0000238C  0000              add [bx+si],al
0000238E  0000              add [bx+si],al
00002390  0000              add [bx+si],al
00002392  0000              add [bx+si],al
00002394  0000              add [bx+si],al
00002396  0000              add [bx+si],al
00002398  0000              add [bx+si],al
0000239A  0000              add [bx+si],al
0000239C  0000              add [bx+si],al
0000239E  0000              add [bx+si],al
000023A0  0000              add [bx+si],al
000023A2  0000              add [bx+si],al
000023A4  0000              add [bx+si],al
000023A6  0000              add [bx+si],al
000023A8  0000              add [bx+si],al
000023AA  0000              add [bx+si],al
000023AC  0000              add [bx+si],al
000023AE  0000              add [bx+si],al
000023B0  0000              add [bx+si],al
000023B2  0000              add [bx+si],al
000023B4  0000              add [bx+si],al
000023B6  0000              add [bx+si],al
000023B8  0000              add [bx+si],al
000023BA  0000              add [bx+si],al
000023BC  0000              add [bx+si],al
000023BE  0000              add [bx+si],al
000023C0  0000              add [bx+si],al
000023C2  0000              add [bx+si],al
000023C4  0000              add [bx+si],al
000023C6  0000              add [bx+si],al
000023C8  0000              add [bx+si],al
000023CA  0000              add [bx+si],al
000023CC  0000              add [bx+si],al
000023CE  0000              add [bx+si],al
000023D0  0000              add [bx+si],al
000023D2  0000              add [bx+si],al
000023D4  0000              add [bx+si],al
000023D6  0000              add [bx+si],al
000023D8  0000              add [bx+si],al
000023DA  0000              add [bx+si],al
000023DC  0000              add [bx+si],al
000023DE  0000              add [bx+si],al
000023E0  0000              add [bx+si],al
000023E2  0000              add [bx+si],al
000023E4  0000              add [bx+si],al
000023E6  0000              add [bx+si],al
000023E8  0000              add [bx+si],al
000023EA  0000              add [bx+si],al
000023EC  0000              add [bx+si],al
000023EE  0000              add [bx+si],al
000023F0  0000              add [bx+si],al
000023F2  0000              add [bx+si],al
000023F4  0000              add [bx+si],al
000023F6  0000              add [bx+si],al
000023F8  0000              add [bx+si],al
000023FA  0000              add [bx+si],al
000023FC  0000              add [bx+si],al
000023FE  0000              add [bx+si],al
00002400  0000              add [bx+si],al
00002402  0000              add [bx+si],al
00002404  0000              add [bx+si],al
00002406  0000              add [bx+si],al
00002408  0000              add [bx+si],al
0000240A  0000              add [bx+si],al
0000240C  0000              add [bx+si],al
0000240E  0000              add [bx+si],al
00002410  0000              add [bx+si],al
00002412  0000              add [bx+si],al
00002414  0000              add [bx+si],al
00002416  0000              add [bx+si],al
00002418  0000              add [bx+si],al
0000241A  0000              add [bx+si],al
0000241C  0000              add [bx+si],al
0000241E  0000              add [bx+si],al
00002420  0000              add [bx+si],al
00002422  0000              add [bx+si],al
00002424  0000              add [bx+si],al
00002426  0000              add [bx+si],al
00002428  0000              add [bx+si],al
0000242A  0000              add [bx+si],al
0000242C  0000              add [bx+si],al
0000242E  0000              add [bx+si],al
00002430  0000              add [bx+si],al
00002432  0000              add [bx+si],al
00002434  0000              add [bx+si],al
00002436  0000              add [bx+si],al
00002438  0000              add [bx+si],al
0000243A  0000              add [bx+si],al
0000243C  0000              add [bx+si],al
0000243E  0000              add [bx+si],al
00002440  0000              add [bx+si],al
00002442  0000              add [bx+si],al
00002444  0000              add [bx+si],al
00002446  0000              add [bx+si],al
00002448  0000              add [bx+si],al
0000244A  0000              add [bx+si],al
0000244C  0000              add [bx+si],al
0000244E  0000              add [bx+si],al
00002450  0000              add [bx+si],al
00002452  0000              add [bx+si],al
00002454  0000              add [bx+si],al
00002456  0000              add [bx+si],al
00002458  0000              add [bx+si],al
0000245A  0000              add [bx+si],al
0000245C  0000              add [bx+si],al
0000245E  0000              add [bx+si],al
00002460  0000              add [bx+si],al
00002462  0000              add [bx+si],al
00002464  0000              add [bx+si],al
00002466  0000              add [bx+si],al
00002468  0000              add [bx+si],al
0000246A  0000              add [bx+si],al
0000246C  0000              add [bx+si],al
0000246E  0000              add [bx+si],al
00002470  0000              add [bx+si],al
00002472  0000              add [bx+si],al
00002474  0000              add [bx+si],al
00002476  0000              add [bx+si],al
00002478  0000              add [bx+si],al
0000247A  0000              add [bx+si],al
0000247C  0000              add [bx+si],al
0000247E  0000              add [bx+si],al
00002480  0000              add [bx+si],al
00002482  0000              add [bx+si],al
00002484  0000              add [bx+si],al
00002486  0000              add [bx+si],al
00002488  0000              add [bx+si],al
0000248A  0000              add [bx+si],al
0000248C  0000              add [bx+si],al
0000248E  0000              add [bx+si],al
00002490  0000              add [bx+si],al
00002492  0000              add [bx+si],al
00002494  0000              add [bx+si],al
00002496  0000              add [bx+si],al
00002498  0000              add [bx+si],al
0000249A  0000              add [bx+si],al
0000249C  0000              add [bx+si],al
0000249E  0000              add [bx+si],al
000024A0  0000              add [bx+si],al
000024A2  0000              add [bx+si],al
000024A4  0000              add [bx+si],al
000024A6  0000              add [bx+si],al
000024A8  0000              add [bx+si],al
000024AA  0000              add [bx+si],al
000024AC  0000              add [bx+si],al
000024AE  0000              add [bx+si],al
000024B0  0000              add [bx+si],al
000024B2  0000              add [bx+si],al
000024B4  0000              add [bx+si],al
000024B6  0000              add [bx+si],al
000024B8  0000              add [bx+si],al
000024BA  0000              add [bx+si],al
000024BC  0000              add [bx+si],al
000024BE  0000              add [bx+si],al
000024C0  0000              add [bx+si],al
000024C2  0000              add [bx+si],al
000024C4  0000              add [bx+si],al
000024C6  0000              add [bx+si],al
000024C8  0000              add [bx+si],al
000024CA  0000              add [bx+si],al
000024CC  0000              add [bx+si],al
000024CE  0000              add [bx+si],al
000024D0  0000              add [bx+si],al
000024D2  0000              add [bx+si],al
000024D4  0000              add [bx+si],al
000024D6  0000              add [bx+si],al
000024D8  0000              add [bx+si],al
000024DA  0000              add [bx+si],al
000024DC  0000              add [bx+si],al
000024DE  0000              add [bx+si],al
000024E0  0000              add [bx+si],al
000024E2  0000              add [bx+si],al
000024E4  0000              add [bx+si],al
000024E6  0000              add [bx+si],al
000024E8  0000              add [bx+si],al
000024EA  0000              add [bx+si],al
000024EC  0000              add [bx+si],al
000024EE  0000              add [bx+si],al
000024F0  0000              add [bx+si],al
000024F2  0000              add [bx+si],al
000024F4  0000              add [bx+si],al
000024F6  0000              add [bx+si],al
000024F8  0000              add [bx+si],al
000024FA  0000              add [bx+si],al
000024FC  0000              add [bx+si],al
000024FE  0000              add [bx+si],al
00002500  0000              add [bx+si],al
00002502  0000              add [bx+si],al
00002504  0000              add [bx+si],al
00002506  0000              add [bx+si],al
00002508  0000              add [bx+si],al
0000250A  0000              add [bx+si],al
0000250C  0000              add [bx+si],al
0000250E  0000              add [bx+si],al
00002510  0000              add [bx+si],al
00002512  0000              add [bx+si],al
00002514  0000              add [bx+si],al
00002516  0000              add [bx+si],al
00002518  0000              add [bx+si],al
0000251A  0000              add [bx+si],al
0000251C  0000              add [bx+si],al
0000251E  0000              add [bx+si],al
00002520  0000              add [bx+si],al
00002522  0000              add [bx+si],al
00002524  0000              add [bx+si],al
00002526  0000              add [bx+si],al
00002528  0000              add [bx+si],al
0000252A  0000              add [bx+si],al
0000252C  0000              add [bx+si],al
0000252E  0000              add [bx+si],al
00002530  0000              add [bx+si],al
00002532  0000              add [bx+si],al
00002534  0000              add [bx+si],al
00002536  0000              add [bx+si],al
00002538  0000              add [bx+si],al
0000253A  0000              add [bx+si],al
0000253C  0000              add [bx+si],al
0000253E  0000              add [bx+si],al
00002540  0000              add [bx+si],al
00002542  0000              add [bx+si],al
00002544  0000              add [bx+si],al
00002546  0000              add [bx+si],al
00002548  0000              add [bx+si],al
0000254A  0000              add [bx+si],al
0000254C  0000              add [bx+si],al
0000254E  0000              add [bx+si],al
00002550  0000              add [bx+si],al
00002552  0000              add [bx+si],al
00002554  0000              add [bx+si],al
00002556  0000              add [bx+si],al
00002558  0000              add [bx+si],al
0000255A  0000              add [bx+si],al
0000255C  0000              add [bx+si],al
0000255E  0000              add [bx+si],al
00002560  0000              add [bx+si],al
00002562  0000              add [bx+si],al
00002564  0000              add [bx+si],al
00002566  0000              add [bx+si],al
00002568  0000              add [bx+si],al
0000256A  0000              add [bx+si],al
0000256C  0000              add [bx+si],al
0000256E  0000              add [bx+si],al
00002570  0000              add [bx+si],al
00002572  0000              add [bx+si],al
00002574  0000              add [bx+si],al
00002576  0000              add [bx+si],al
00002578  0000              add [bx+si],al
0000257A  0000              add [bx+si],al
0000257C  0000              add [bx+si],al
0000257E  0000              add [bx+si],al
00002580  0000              add [bx+si],al
00002582  0000              add [bx+si],al
00002584  0000              add [bx+si],al
00002586  0000              add [bx+si],al
00002588  0000              add [bx+si],al
0000258A  0000              add [bx+si],al
0000258C  0000              add [bx+si],al
0000258E  0000              add [bx+si],al
00002590  0000              add [bx+si],al
00002592  0000              add [bx+si],al
00002594  0000              add [bx+si],al
00002596  0000              add [bx+si],al
00002598  0000              add [bx+si],al
0000259A  0000              add [bx+si],al
0000259C  0000              add [bx+si],al
0000259E  0000              add [bx+si],al
000025A0  0000              add [bx+si],al
000025A2  0000              add [bx+si],al
000025A4  0000              add [bx+si],al
000025A6  0000              add [bx+si],al
000025A8  0000              add [bx+si],al
000025AA  0000              add [bx+si],al
000025AC  0000              add [bx+si],al
000025AE  0000              add [bx+si],al
000025B0  0000              add [bx+si],al
000025B2  0000              add [bx+si],al
000025B4  0000              add [bx+si],al
000025B6  0000              add [bx+si],al
000025B8  0000              add [bx+si],al
000025BA  0000              add [bx+si],al
000025BC  0000              add [bx+si],al
000025BE  0000              add [bx+si],al
000025C0  0000              add [bx+si],al
000025C2  0000              add [bx+si],al
000025C4  0000              add [bx+si],al
000025C6  0000              add [bx+si],al
000025C8  0000              add [bx+si],al
000025CA  0000              add [bx+si],al
000025CC  0000              add [bx+si],al
000025CE  0000              add [bx+si],al
000025D0  0000              add [bx+si],al
000025D2  0000              add [bx+si],al
000025D4  0000              add [bx+si],al
000025D6  0000              add [bx+si],al
000025D8  0000              add [bx+si],al
000025DA  0000              add [bx+si],al
000025DC  0000              add [bx+si],al
000025DE  0000              add [bx+si],al
000025E0  0000              add [bx+si],al
000025E2  0000              add [bx+si],al
000025E4  0000              add [bx+si],al
000025E6  0000              add [bx+si],al
000025E8  0000              add [bx+si],al
000025EA  0000              add [bx+si],al
000025EC  0000              add [bx+si],al
000025EE  0000              add [bx+si],al
000025F0  0000              add [bx+si],al
000025F2  0000              add [bx+si],al
000025F4  0000              add [bx+si],al
000025F6  0000              add [bx+si],al
000025F8  0000              add [bx+si],al
000025FA  0000              add [bx+si],al
000025FC  0000              add [bx+si],al
000025FE  0000              add [bx+si],al
00002600  0000              add [bx+si],al
00002602  0000              add [bx+si],al
00002604  0000              add [bx+si],al
00002606  0000              add [bx+si],al
00002608  0000              add [bx+si],al
0000260A  0000              add [bx+si],al
0000260C  0000              add [bx+si],al
0000260E  0000              add [bx+si],al
00002610  0000              add [bx+si],al
00002612  0000              add [bx+si],al
00002614  0000              add [bx+si],al
00002616  0000              add [bx+si],al
00002618  0000              add [bx+si],al
0000261A  0000              add [bx+si],al
0000261C  0000              add [bx+si],al
0000261E  0000              add [bx+si],al
00002620  0000              add [bx+si],al
00002622  0000              add [bx+si],al
00002624  0000              add [bx+si],al
00002626  0000              add [bx+si],al
00002628  0000              add [bx+si],al
0000262A  0000              add [bx+si],al
0000262C  0000              add [bx+si],al
0000262E  0000              add [bx+si],al
00002630  0000              add [bx+si],al
00002632  0000              add [bx+si],al
00002634  0000              add [bx+si],al
00002636  0000              add [bx+si],al
00002638  0000              add [bx+si],al
0000263A  0000              add [bx+si],al
0000263C  0000              add [bx+si],al
0000263E  0000              add [bx+si],al
00002640  0000              add [bx+si],al
00002642  0000              add [bx+si],al
00002644  0000              add [bx+si],al
00002646  0000              add [bx+si],al
00002648  0000              add [bx+si],al
0000264A  0000              add [bx+si],al
0000264C  0000              add [bx+si],al
0000264E  0000              add [bx+si],al
00002650  0000              add [bx+si],al
00002652  0000              add [bx+si],al
00002654  0000              add [bx+si],al
00002656  0000              add [bx+si],al
00002658  0000              add [bx+si],al
0000265A  0000              add [bx+si],al
0000265C  0000              add [bx+si],al
0000265E  0000              add [bx+si],al
00002660  0000              add [bx+si],al
00002662  0000              add [bx+si],al
00002664  0000              add [bx+si],al
00002666  0000              add [bx+si],al
00002668  0000              add [bx+si],al
0000266A  0000              add [bx+si],al
0000266C  0000              add [bx+si],al
0000266E  0000              add [bx+si],al
00002670  0000              add [bx+si],al
00002672  0000              add [bx+si],al
00002674  0000              add [bx+si],al
00002676  0000              add [bx+si],al
00002678  0000              add [bx+si],al
0000267A  0000              add [bx+si],al
0000267C  0000              add [bx+si],al
0000267E  0000              add [bx+si],al
00002680  0000              add [bx+si],al
00002682  0000              add [bx+si],al
00002684  0000              add [bx+si],al
00002686  0000              add [bx+si],al
00002688  0000              add [bx+si],al
0000268A  0000              add [bx+si],al
0000268C  0000              add [bx+si],al
0000268E  0000              add [bx+si],al
00002690  0000              add [bx+si],al
00002692  0000              add [bx+si],al
00002694  0000              add [bx+si],al
00002696  0000              add [bx+si],al
00002698  0000              add [bx+si],al
0000269A  0000              add [bx+si],al
0000269C  0000              add [bx+si],al
0000269E  0000              add [bx+si],al
000026A0  0000              add [bx+si],al
000026A2  0000              add [bx+si],al
000026A4  0000              add [bx+si],al
000026A6  0000              add [bx+si],al
000026A8  0000              add [bx+si],al
000026AA  0000              add [bx+si],al
000026AC  0000              add [bx+si],al
000026AE  0000              add [bx+si],al
000026B0  0000              add [bx+si],al
000026B2  0000              add [bx+si],al
000026B4  0000              add [bx+si],al
000026B6  0000              add [bx+si],al
000026B8  0000              add [bx+si],al
000026BA  0000              add [bx+si],al
000026BC  0000              add [bx+si],al
000026BE  0000              add [bx+si],al
000026C0  0000              add [bx+si],al
000026C2  0000              add [bx+si],al
000026C4  0000              add [bx+si],al
000026C6  0000              add [bx+si],al
000026C8  0000              add [bx+si],al
000026CA  0000              add [bx+si],al
000026CC  0000              add [bx+si],al
000026CE  0000              add [bx+si],al
000026D0  0000              add [bx+si],al
000026D2  0000              add [bx+si],al
000026D4  0000              add [bx+si],al
000026D6  0000              add [bx+si],al
000026D8  0000              add [bx+si],al
000026DA  0000              add [bx+si],al
000026DC  0000              add [bx+si],al
000026DE  0000              add [bx+si],al
000026E0  0000              add [bx+si],al
000026E2  0000              add [bx+si],al
000026E4  0000              add [bx+si],al
000026E6  0000              add [bx+si],al
000026E8  0000              add [bx+si],al
000026EA  0000              add [bx+si],al
000026EC  0000              add [bx+si],al
000026EE  0000              add [bx+si],al
000026F0  0000              add [bx+si],al
000026F2  0000              add [bx+si],al
000026F4  0000              add [bx+si],al
000026F6  0000              add [bx+si],al
000026F8  0000              add [bx+si],al
000026FA  0000              add [bx+si],al
000026FC  0000              add [bx+si],al
000026FE  0000              add [bx+si],al
00002700  0000              add [bx+si],al
00002702  0000              add [bx+si],al
00002704  0000              add [bx+si],al
00002706  0000              add [bx+si],al
00002708  0000              add [bx+si],al
0000270A  0000              add [bx+si],al
0000270C  0000              add [bx+si],al
0000270E  0000              add [bx+si],al
00002710  0000              add [bx+si],al
00002712  0000              add [bx+si],al
00002714  0000              add [bx+si],al
00002716  0000              add [bx+si],al
00002718  0000              add [bx+si],al
0000271A  0000              add [bx+si],al
0000271C  0000              add [bx+si],al
0000271E  0000              add [bx+si],al
00002720  0000              add [bx+si],al
00002722  0000              add [bx+si],al
00002724  0000              add [bx+si],al
00002726  0000              add [bx+si],al
00002728  0000              add [bx+si],al
0000272A  0000              add [bx+si],al
0000272C  0000              add [bx+si],al
0000272E  0000              add [bx+si],al
00002730  0000              add [bx+si],al
00002732  0000              add [bx+si],al
00002734  0000              add [bx+si],al
00002736  0000              add [bx+si],al
00002738  0000              add [bx+si],al
0000273A  0000              add [bx+si],al
0000273C  0000              add [bx+si],al
0000273E  0000              add [bx+si],al
00002740  0000              add [bx+si],al
00002742  0000              add [bx+si],al
00002744  0000              add [bx+si],al
00002746  0000              add [bx+si],al
00002748  0000              add [bx+si],al
0000274A  0000              add [bx+si],al
0000274C  0000              add [bx+si],al
0000274E  0000              add [bx+si],al
00002750  0000              add [bx+si],al
00002752  0000              add [bx+si],al
00002754  0000              add [bx+si],al
00002756  0000              add [bx+si],al
00002758  0000              add [bx+si],al
0000275A  0000              add [bx+si],al
0000275C  0000              add [bx+si],al
0000275E  0000              add [bx+si],al
00002760  0000              add [bx+si],al
00002762  0000              add [bx+si],al
00002764  0000              add [bx+si],al
00002766  0000              add [bx+si],al
00002768  0000              add [bx+si],al
0000276A  0000              add [bx+si],al
0000276C  0000              add [bx+si],al
0000276E  0000              add [bx+si],al
00002770  0000              add [bx+si],al
00002772  0000              add [bx+si],al
00002774  0000              add [bx+si],al
00002776  0000              add [bx+si],al
00002778  0000              add [bx+si],al
0000277A  0000              add [bx+si],al
0000277C  0000              add [bx+si],al
0000277E  0000              add [bx+si],al
00002780  0000              add [bx+si],al
00002782  0000              add [bx+si],al
00002784  0000              add [bx+si],al
00002786  0000              add [bx+si],al
00002788  0000              add [bx+si],al
0000278A  0000              add [bx+si],al
0000278C  0000              add [bx+si],al
0000278E  0000              add [bx+si],al
00002790  0000              add [bx+si],al
00002792  0000              add [bx+si],al
00002794  0000              add [bx+si],al
00002796  0000              add [bx+si],al
00002798  0000              add [bx+si],al
0000279A  0000              add [bx+si],al
0000279C  0000              add [bx+si],al
0000279E  0000              add [bx+si],al
000027A0  0000              add [bx+si],al
000027A2  0000              add [bx+si],al
000027A4  0000              add [bx+si],al
000027A6  0000              add [bx+si],al
000027A8  0000              add [bx+si],al
000027AA  0000              add [bx+si],al
000027AC  0000              add [bx+si],al
000027AE  0000              add [bx+si],al
000027B0  0000              add [bx+si],al
000027B2  0000              add [bx+si],al
000027B4  0000              add [bx+si],al
000027B6  0000              add [bx+si],al
000027B8  0000              add [bx+si],al
000027BA  0000              add [bx+si],al
000027BC  0000              add [bx+si],al
000027BE  0000              add [bx+si],al
000027C0  0000              add [bx+si],al
000027C2  0000              add [bx+si],al
000027C4  0000              add [bx+si],al
000027C6  0000              add [bx+si],al
000027C8  0000              add [bx+si],al
000027CA  0000              add [bx+si],al
000027CC  0000              add [bx+si],al
000027CE  0000              add [bx+si],al
000027D0  0000              add [bx+si],al
000027D2  0000              add [bx+si],al
000027D4  0000              add [bx+si],al
000027D6  0000              add [bx+si],al
000027D8  0000              add [bx+si],al
000027DA  0000              add [bx+si],al
000027DC  0000              add [bx+si],al
000027DE  0000              add [bx+si],al
000027E0  0000              add [bx+si],al
000027E2  0000              add [bx+si],al
000027E4  0000              add [bx+si],al
000027E6  0000              add [bx+si],al
000027E8  0000              add [bx+si],al
000027EA  0000              add [bx+si],al
000027EC  0000              add [bx+si],al
000027EE  0000              add [bx+si],al
000027F0  0000              add [bx+si],al
000027F2  0000              add [bx+si],al
000027F4  0000              add [bx+si],al
000027F6  0000              add [bx+si],al
000027F8  0000              add [bx+si],al
000027FA  0000              add [bx+si],al
000027FC  0000              add [bx+si],al
000027FE  0000              add [bx+si],al
00002800  0000              add [bx+si],al
00002802  0000              add [bx+si],al
00002804  0000              add [bx+si],al
00002806  0000              add [bx+si],al
00002808  0000              add [bx+si],al
0000280A  0000              add [bx+si],al
0000280C  0000              add [bx+si],al
0000280E  0000              add [bx+si],al
00002810  0000              add [bx+si],al
00002812  0000              add [bx+si],al
00002814  0000              add [bx+si],al
00002816  0000              add [bx+si],al
00002818  0000              add [bx+si],al
0000281A  0000              add [bx+si],al
0000281C  0000              add [bx+si],al
0000281E  0000              add [bx+si],al
00002820  0000              add [bx+si],al
00002822  0000              add [bx+si],al
00002824  0000              add [bx+si],al
00002826  0000              add [bx+si],al
00002828  0000              add [bx+si],al
0000282A  0000              add [bx+si],al
0000282C  0000              add [bx+si],al
0000282E  0000              add [bx+si],al
00002830  0000              add [bx+si],al
00002832  0000              add [bx+si],al
00002834  0000              add [bx+si],al
00002836  0000              add [bx+si],al
00002838  0000              add [bx+si],al
0000283A  0000              add [bx+si],al
0000283C  0000              add [bx+si],al
0000283E  0000              add [bx+si],al
00002840  0000              add [bx+si],al
00002842  0000              add [bx+si],al
00002844  0000              add [bx+si],al
00002846  0000              add [bx+si],al
00002848  0000              add [bx+si],al
0000284A  0000              add [bx+si],al
0000284C  0000              add [bx+si],al
0000284E  0000              add [bx+si],al
00002850  0000              add [bx+si],al
00002852  0000              add [bx+si],al
00002854  0000              add [bx+si],al
00002856  0000              add [bx+si],al
00002858  0000              add [bx+si],al
0000285A  0000              add [bx+si],al
0000285C  0000              add [bx+si],al
0000285E  0000              add [bx+si],al
00002860  0000              add [bx+si],al
00002862  0000              add [bx+si],al
00002864  0000              add [bx+si],al
00002866  0000              add [bx+si],al
00002868  0000              add [bx+si],al
0000286A  0000              add [bx+si],al
0000286C  0000              add [bx+si],al
0000286E  0000              add [bx+si],al
00002870  0000              add [bx+si],al
00002872  0000              add [bx+si],al
00002874  0000              add [bx+si],al
00002876  0000              add [bx+si],al
00002878  0000              add [bx+si],al
0000287A  0000              add [bx+si],al
0000287C  0000              add [bx+si],al
0000287E  0000              add [bx+si],al
00002880  0000              add [bx+si],al
00002882  0000              add [bx+si],al
00002884  0000              add [bx+si],al
00002886  0000              add [bx+si],al
00002888  0000              add [bx+si],al
0000288A  0000              add [bx+si],al
0000288C  0000              add [bx+si],al
0000288E  0000              add [bx+si],al
00002890  0000              add [bx+si],al
00002892  0000              add [bx+si],al
00002894  0000              add [bx+si],al
00002896  0000              add [bx+si],al
00002898  0000              add [bx+si],al
0000289A  0000              add [bx+si],al
0000289C  0000              add [bx+si],al
0000289E  0000              add [bx+si],al
000028A0  0000              add [bx+si],al
000028A2  0000              add [bx+si],al
000028A4  0000              add [bx+si],al
000028A6  0000              add [bx+si],al
000028A8  0000              add [bx+si],al
000028AA  0000              add [bx+si],al
000028AC  0000              add [bx+si],al
000028AE  0000              add [bx+si],al
000028B0  0000              add [bx+si],al
000028B2  0000              add [bx+si],al
000028B4  0000              add [bx+si],al
000028B6  0000              add [bx+si],al
000028B8  0000              add [bx+si],al
000028BA  0000              add [bx+si],al
000028BC  0000              add [bx+si],al
000028BE  0000              add [bx+si],al
000028C0  0000              add [bx+si],al
000028C2  0000              add [bx+si],al
000028C4  0000              add [bx+si],al
000028C6  0000              add [bx+si],al
000028C8  0000              add [bx+si],al
000028CA  0000              add [bx+si],al
000028CC  0000              add [bx+si],al
000028CE  0000              add [bx+si],al
000028D0  0000              add [bx+si],al
000028D2  0000              add [bx+si],al
000028D4  0000              add [bx+si],al
000028D6  0000              add [bx+si],al
000028D8  0000              add [bx+si],al
000028DA  0000              add [bx+si],al
000028DC  0000              add [bx+si],al
000028DE  0000              add [bx+si],al
000028E0  0000              add [bx+si],al
000028E2  0000              add [bx+si],al
000028E4  0000              add [bx+si],al
000028E6  0000              add [bx+si],al
000028E8  0000              add [bx+si],al
000028EA  0000              add [bx+si],al
000028EC  0000              add [bx+si],al
000028EE  0000              add [bx+si],al
000028F0  0000              add [bx+si],al
000028F2  0000              add [bx+si],al
000028F4  0000              add [bx+si],al
000028F6  0000              add [bx+si],al
000028F8  0000              add [bx+si],al
000028FA  0000              add [bx+si],al
000028FC  0000              add [bx+si],al
000028FE  0000              add [bx+si],al
00002900  0000              add [bx+si],al
00002902  0000              add [bx+si],al
00002904  0000              add [bx+si],al
00002906  0000              add [bx+si],al
00002908  0000              add [bx+si],al
0000290A  0000              add [bx+si],al
0000290C  0000              add [bx+si],al
0000290E  0000              add [bx+si],al
00002910  0000              add [bx+si],al
00002912  0000              add [bx+si],al
00002914  0000              add [bx+si],al
00002916  0000              add [bx+si],al
00002918  0000              add [bx+si],al
0000291A  0000              add [bx+si],al
0000291C  0000              add [bx+si],al
0000291E  0000              add [bx+si],al
00002920  0000              add [bx+si],al
00002922  0000              add [bx+si],al
00002924  0000              add [bx+si],al
00002926  0000              add [bx+si],al
00002928  0000              add [bx+si],al
0000292A  0000              add [bx+si],al
0000292C  0000              add [bx+si],al
0000292E  0000              add [bx+si],al
00002930  0000              add [bx+si],al
00002932  0000              add [bx+si],al
00002934  0000              add [bx+si],al
00002936  0000              add [bx+si],al
00002938  0000              add [bx+si],al
0000293A  0000              add [bx+si],al
0000293C  0000              add [bx+si],al
0000293E  0000              add [bx+si],al
00002940  0000              add [bx+si],al
00002942  0000              add [bx+si],al
00002944  0000              add [bx+si],al
00002946  0000              add [bx+si],al
00002948  0000              add [bx+si],al
0000294A  0000              add [bx+si],al
0000294C  0000              add [bx+si],al
0000294E  0000              add [bx+si],al
00002950  0000              add [bx+si],al
00002952  0000              add [bx+si],al
00002954  0000              add [bx+si],al
00002956  0000              add [bx+si],al
00002958  0000              add [bx+si],al
0000295A  0000              add [bx+si],al
0000295C  0000              add [bx+si],al
0000295E  0000              add [bx+si],al
00002960  0000              add [bx+si],al
00002962  0000              add [bx+si],al
00002964  0000              add [bx+si],al
00002966  0000              add [bx+si],al
00002968  0000              add [bx+si],al
0000296A  0000              add [bx+si],al
0000296C  0000              add [bx+si],al
0000296E  0000              add [bx+si],al
00002970  0000              add [bx+si],al
00002972  0000              add [bx+si],al
00002974  0000              add [bx+si],al
00002976  0000              add [bx+si],al
00002978  0000              add [bx+si],al
0000297A  0000              add [bx+si],al
0000297C  0000              add [bx+si],al
0000297E  0000              add [bx+si],al
00002980  0000              add [bx+si],al
00002982  0000              add [bx+si],al
00002984  0000              add [bx+si],al
00002986  0000              add [bx+si],al
00002988  0000              add [bx+si],al
0000298A  0000              add [bx+si],al
0000298C  0000              add [bx+si],al
0000298E  0000              add [bx+si],al
00002990  0000              add [bx+si],al
00002992  0000              add [bx+si],al
00002994  0000              add [bx+si],al
00002996  0000              add [bx+si],al
00002998  0000              add [bx+si],al
0000299A  0000              add [bx+si],al
0000299C  0000              add [bx+si],al
0000299E  0000              add [bx+si],al
000029A0  0000              add [bx+si],al
000029A2  0000              add [bx+si],al
000029A4  0000              add [bx+si],al
000029A6  0000              add [bx+si],al
000029A8  0000              add [bx+si],al
000029AA  0000              add [bx+si],al
000029AC  0000              add [bx+si],al
000029AE  0000              add [bx+si],al
000029B0  0000              add [bx+si],al
000029B2  0000              add [bx+si],al
000029B4  0000              add [bx+si],al
000029B6  0000              add [bx+si],al
000029B8  0000              add [bx+si],al
000029BA  0000              add [bx+si],al
000029BC  0000              add [bx+si],al
000029BE  0000              add [bx+si],al
000029C0  0000              add [bx+si],al
000029C2  0000              add [bx+si],al
000029C4  0000              add [bx+si],al
000029C6  0000              add [bx+si],al
000029C8  0000              add [bx+si],al
000029CA  0000              add [bx+si],al
000029CC  0000              add [bx+si],al
000029CE  0000              add [bx+si],al
000029D0  0000              add [bx+si],al
000029D2  0000              add [bx+si],al
000029D4  0000              add [bx+si],al
000029D6  0000              add [bx+si],al
000029D8  0000              add [bx+si],al
000029DA  0000              add [bx+si],al
000029DC  0000              add [bx+si],al
000029DE  0000              add [bx+si],al
000029E0  0000              add [bx+si],al
000029E2  0000              add [bx+si],al
000029E4  0000              add [bx+si],al
000029E6  0000              add [bx+si],al
000029E8  0000              add [bx+si],al
000029EA  0000              add [bx+si],al
000029EC  0000              add [bx+si],al
000029EE  0000              add [bx+si],al
000029F0  0000              add [bx+si],al
000029F2  0000              add [bx+si],al
000029F4  0000              add [bx+si],al
000029F6  0000              add [bx+si],al
000029F8  0000              add [bx+si],al
000029FA  0000              add [bx+si],al
000029FC  0000              add [bx+si],al
000029FE  0000              add [bx+si],al
00002A00  0000              add [bx+si],al
00002A02  0000              add [bx+si],al
00002A04  0000              add [bx+si],al
00002A06  0000              add [bx+si],al
00002A08  0000              add [bx+si],al
00002A0A  0000              add [bx+si],al
00002A0C  0000              add [bx+si],al
00002A0E  0000              add [bx+si],al
00002A10  0000              add [bx+si],al
00002A12  0000              add [bx+si],al
00002A14  0000              add [bx+si],al
00002A16  0000              add [bx+si],al
00002A18  0000              add [bx+si],al
00002A1A  0000              add [bx+si],al
00002A1C  0000              add [bx+si],al
00002A1E  0000              add [bx+si],al
00002A20  0000              add [bx+si],al
00002A22  0000              add [bx+si],al
00002A24  0000              add [bx+si],al
00002A26  0000              add [bx+si],al
00002A28  0000              add [bx+si],al
00002A2A  0000              add [bx+si],al
00002A2C  0000              add [bx+si],al
00002A2E  0000              add [bx+si],al
00002A30  0000              add [bx+si],al
00002A32  0000              add [bx+si],al
00002A34  0000              add [bx+si],al
00002A36  0000              add [bx+si],al
00002A38  0000              add [bx+si],al
00002A3A  0000              add [bx+si],al
00002A3C  0000              add [bx+si],al
00002A3E  0000              add [bx+si],al
00002A40  0000              add [bx+si],al
00002A42  0000              add [bx+si],al
00002A44  0000              add [bx+si],al
00002A46  0000              add [bx+si],al
00002A48  0000              add [bx+si],al
00002A4A  0000              add [bx+si],al
00002A4C  0000              add [bx+si],al
00002A4E  0000              add [bx+si],al
00002A50  0000              add [bx+si],al
00002A52  0000              add [bx+si],al
00002A54  0000              add [bx+si],al
00002A56  0000              add [bx+si],al
00002A58  0000              add [bx+si],al
00002A5A  0000              add [bx+si],al
00002A5C  0000              add [bx+si],al
00002A5E  0000              add [bx+si],al
00002A60  0000              add [bx+si],al
00002A62  0000              add [bx+si],al
00002A64  0000              add [bx+si],al
00002A66  0000              add [bx+si],al
00002A68  0000              add [bx+si],al
00002A6A  0000              add [bx+si],al
00002A6C  0000              add [bx+si],al
00002A6E  0000              add [bx+si],al
00002A70  0000              add [bx+si],al
00002A72  0000              add [bx+si],al
00002A74  0000              add [bx+si],al
00002A76  0000              add [bx+si],al
00002A78  0000              add [bx+si],al
00002A7A  0000              add [bx+si],al
00002A7C  0000              add [bx+si],al
00002A7E  0000              add [bx+si],al
00002A80  0000              add [bx+si],al
00002A82  0000              add [bx+si],al
00002A84  0000              add [bx+si],al
00002A86  0000              add [bx+si],al
00002A88  0000              add [bx+si],al
00002A8A  0000              add [bx+si],al
00002A8C  0000              add [bx+si],al
00002A8E  0000              add [bx+si],al
00002A90  0000              add [bx+si],al
00002A92  0000              add [bx+si],al
00002A94  0000              add [bx+si],al
00002A96  0000              add [bx+si],al
00002A98  0000              add [bx+si],al
00002A9A  0000              add [bx+si],al
00002A9C  0000              add [bx+si],al
00002A9E  0000              add [bx+si],al
00002AA0  0000              add [bx+si],al
00002AA2  0000              add [bx+si],al
00002AA4  0000              add [bx+si],al
00002AA6  0000              add [bx+si],al
00002AA8  0000              add [bx+si],al
00002AAA  0000              add [bx+si],al
00002AAC  0000              add [bx+si],al
00002AAE  0000              add [bx+si],al
00002AB0  0000              add [bx+si],al
00002AB2  0000              add [bx+si],al
00002AB4  0000              add [bx+si],al
00002AB6  0000              add [bx+si],al
00002AB8  0000              add [bx+si],al
00002ABA  0000              add [bx+si],al
00002ABC  0000              add [bx+si],al
00002ABE  0000              add [bx+si],al
00002AC0  0000              add [bx+si],al
00002AC2  0000              add [bx+si],al
00002AC4  0000              add [bx+si],al
00002AC6  0000              add [bx+si],al
00002AC8  0000              add [bx+si],al
00002ACA  0000              add [bx+si],al
00002ACC  0000              add [bx+si],al
00002ACE  0000              add [bx+si],al
00002AD0  0000              add [bx+si],al
00002AD2  0000              add [bx+si],al
00002AD4  0000              add [bx+si],al
00002AD6  0000              add [bx+si],al
00002AD8  0000              add [bx+si],al
00002ADA  0000              add [bx+si],al
00002ADC  0000              add [bx+si],al
00002ADE  0000              add [bx+si],al
00002AE0  0000              add [bx+si],al
00002AE2  0000              add [bx+si],al
00002AE4  0000              add [bx+si],al
00002AE6  0000              add [bx+si],al
00002AE8  0000              add [bx+si],al
00002AEA  0000              add [bx+si],al
00002AEC  0000              add [bx+si],al
00002AEE  0000              add [bx+si],al
00002AF0  0000              add [bx+si],al
00002AF2  0000              add [bx+si],al
00002AF4  0000              add [bx+si],al
00002AF6  0000              add [bx+si],al
00002AF8  0000              add [bx+si],al
00002AFA  0000              add [bx+si],al
00002AFC  0000              add [bx+si],al
00002AFE  0000              add [bx+si],al
00002B00  0000              add [bx+si],al
00002B02  0000              add [bx+si],al
00002B04  0000              add [bx+si],al
00002B06  0000              add [bx+si],al
00002B08  0000              add [bx+si],al
00002B0A  0000              add [bx+si],al
00002B0C  0000              add [bx+si],al
00002B0E  0000              add [bx+si],al
00002B10  0000              add [bx+si],al
00002B12  0000              add [bx+si],al
00002B14  0000              add [bx+si],al
00002B16  0000              add [bx+si],al
00002B18  0000              add [bx+si],al
00002B1A  0000              add [bx+si],al
00002B1C  0000              add [bx+si],al
00002B1E  0000              add [bx+si],al
00002B20  0000              add [bx+si],al
00002B22  0000              add [bx+si],al
00002B24  0000              add [bx+si],al
00002B26  0000              add [bx+si],al
00002B28  0000              add [bx+si],al
00002B2A  0000              add [bx+si],al
00002B2C  0000              add [bx+si],al
00002B2E  0000              add [bx+si],al
00002B30  0000              add [bx+si],al
00002B32  0000              add [bx+si],al
00002B34  0000              add [bx+si],al
00002B36  0000              add [bx+si],al
00002B38  0000              add [bx+si],al
00002B3A  0000              add [bx+si],al
00002B3C  0000              add [bx+si],al
00002B3E  0000              add [bx+si],al
00002B40  0000              add [bx+si],al
00002B42  0000              add [bx+si],al
00002B44  0000              add [bx+si],al
00002B46  0000              add [bx+si],al
00002B48  0000              add [bx+si],al
00002B4A  0000              add [bx+si],al
00002B4C  0000              add [bx+si],al
00002B4E  0000              add [bx+si],al
00002B50  0000              add [bx+si],al
00002B52  0000              add [bx+si],al
00002B54  0000              add [bx+si],al
00002B56  0000              add [bx+si],al
00002B58  0000              add [bx+si],al
00002B5A  0000              add [bx+si],al
00002B5C  0000              add [bx+si],al
00002B5E  0000              add [bx+si],al
00002B60  0000              add [bx+si],al
00002B62  0000              add [bx+si],al
00002B64  0000              add [bx+si],al
00002B66  0000              add [bx+si],al
00002B68  0000              add [bx+si],al
00002B6A  0000              add [bx+si],al
00002B6C  0000              add [bx+si],al
00002B6E  0000              add [bx+si],al
00002B70  0000              add [bx+si],al
00002B72  0000              add [bx+si],al
00002B74  0000              add [bx+si],al
00002B76  0000              add [bx+si],al
00002B78  0000              add [bx+si],al
00002B7A  0000              add [bx+si],al
00002B7C  0000              add [bx+si],al
00002B7E  0000              add [bx+si],al
00002B80  0000              add [bx+si],al
00002B82  0000              add [bx+si],al
00002B84  0000              add [bx+si],al
00002B86  0000              add [bx+si],al
00002B88  0000              add [bx+si],al
00002B8A  0000              add [bx+si],al
00002B8C  0000              add [bx+si],al
00002B8E  0000              add [bx+si],al
00002B90  0000              add [bx+si],al
00002B92  0000              add [bx+si],al
00002B94  0000              add [bx+si],al
00002B96  0000              add [bx+si],al
00002B98  0000              add [bx+si],al
00002B9A  0000              add [bx+si],al
00002B9C  0000              add [bx+si],al
00002B9E  0000              add [bx+si],al
00002BA0  0000              add [bx+si],al
00002BA2  0000              add [bx+si],al
00002BA4  0000              add [bx+si],al
00002BA6  0000              add [bx+si],al
00002BA8  0000              add [bx+si],al
00002BAA  0000              add [bx+si],al
00002BAC  0000              add [bx+si],al
00002BAE  0000              add [bx+si],al
00002BB0  0000              add [bx+si],al
00002BB2  0000              add [bx+si],al
00002BB4  0000              add [bx+si],al
00002BB6  0000              add [bx+si],al
00002BB8  0000              add [bx+si],al
00002BBA  0000              add [bx+si],al
00002BBC  0000              add [bx+si],al
00002BBE  0000              add [bx+si],al
00002BC0  0000              add [bx+si],al
00002BC2  0000              add [bx+si],al
00002BC4  0000              add [bx+si],al
00002BC6  0000              add [bx+si],al
00002BC8  0000              add [bx+si],al
00002BCA  0000              add [bx+si],al
00002BCC  0000              add [bx+si],al
00002BCE  0000              add [bx+si],al
00002BD0  0000              add [bx+si],al
00002BD2  0000              add [bx+si],al
00002BD4  0000              add [bx+si],al
00002BD6  0000              add [bx+si],al
00002BD8  0000              add [bx+si],al
00002BDA  0000              add [bx+si],al
00002BDC  0000              add [bx+si],al
00002BDE  0000              add [bx+si],al
00002BE0  0000              add [bx+si],al
00002BE2  0000              add [bx+si],al
00002BE4  0000              add [bx+si],al
00002BE6  0000              add [bx+si],al
00002BE8  0000              add [bx+si],al
00002BEA  0000              add [bx+si],al
00002BEC  0000              add [bx+si],al
00002BEE  0000              add [bx+si],al
00002BF0  0000              add [bx+si],al
00002BF2  0000              add [bx+si],al
00002BF4  0000              add [bx+si],al
00002BF6  0000              add [bx+si],al
00002BF8  0000              add [bx+si],al
00002BFA  0000              add [bx+si],al
00002BFC  0000              add [bx+si],al
00002BFE  0000              add [bx+si],al
00002C00  0000              add [bx+si],al
00002C02  0000              add [bx+si],al
00002C04  0000              add [bx+si],al
00002C06  0000              add [bx+si],al
00002C08  0000              add [bx+si],al
00002C0A  0000              add [bx+si],al
00002C0C  0000              add [bx+si],al
00002C0E  0000              add [bx+si],al
00002C10  0000              add [bx+si],al
00002C12  0000              add [bx+si],al
00002C14  0000              add [bx+si],al
00002C16  0000              add [bx+si],al
00002C18  0000              add [bx+si],al
00002C1A  0000              add [bx+si],al
00002C1C  0000              add [bx+si],al
00002C1E  0000              add [bx+si],al
00002C20  0000              add [bx+si],al
00002C22  0000              add [bx+si],al
00002C24  0000              add [bx+si],al
00002C26  0000              add [bx+si],al
00002C28  0000              add [bx+si],al
00002C2A  0000              add [bx+si],al
00002C2C  0000              add [bx+si],al
00002C2E  0000              add [bx+si],al
00002C30  0000              add [bx+si],al
00002C32  0000              add [bx+si],al
00002C34  0000              add [bx+si],al
00002C36  0000              add [bx+si],al
00002C38  0000              add [bx+si],al
00002C3A  0000              add [bx+si],al
00002C3C  0000              add [bx+si],al
00002C3E  0000              add [bx+si],al
00002C40  0000              add [bx+si],al
00002C42  0000              add [bx+si],al
00002C44  0000              add [bx+si],al
00002C46  0000              add [bx+si],al
00002C48  0000              add [bx+si],al
00002C4A  0000              add [bx+si],al
00002C4C  0000              add [bx+si],al
00002C4E  0000              add [bx+si],al
00002C50  0000              add [bx+si],al
00002C52  0000              add [bx+si],al
00002C54  0000              add [bx+si],al
00002C56  0000              add [bx+si],al
00002C58  0000              add [bx+si],al
00002C5A  0000              add [bx+si],al
00002C5C  0000              add [bx+si],al
00002C5E  0000              add [bx+si],al
00002C60  0000              add [bx+si],al
00002C62  0000              add [bx+si],al
00002C64  0000              add [bx+si],al
00002C66  0000              add [bx+si],al
00002C68  0000              add [bx+si],al
00002C6A  0000              add [bx+si],al
00002C6C  0000              add [bx+si],al
00002C6E  0000              add [bx+si],al
00002C70  0000              add [bx+si],al
00002C72  0000              add [bx+si],al
00002C74  0000              add [bx+si],al
00002C76  0000              add [bx+si],al
00002C78  0000              add [bx+si],al
00002C7A  0000              add [bx+si],al
00002C7C  0000              add [bx+si],al
00002C7E  0000              add [bx+si],al
00002C80  0000              add [bx+si],al
00002C82  0000              add [bx+si],al
00002C84  0000              add [bx+si],al
00002C86  0000              add [bx+si],al
00002C88  0000              add [bx+si],al
00002C8A  0000              add [bx+si],al
00002C8C  0000              add [bx+si],al
00002C8E  0000              add [bx+si],al
00002C90  0000              add [bx+si],al
00002C92  0000              add [bx+si],al
00002C94  0000              add [bx+si],al
00002C96  0000              add [bx+si],al
00002C98  0000              add [bx+si],al
00002C9A  0000              add [bx+si],al
00002C9C  0000              add [bx+si],al
00002C9E  0000              add [bx+si],al
00002CA0  0000              add [bx+si],al
00002CA2  0000              add [bx+si],al
00002CA4  0000              add [bx+si],al
00002CA6  0000              add [bx+si],al
00002CA8  0000              add [bx+si],al
00002CAA  0000              add [bx+si],al
00002CAC  0000              add [bx+si],al
00002CAE  0000              add [bx+si],al
00002CB0  0000              add [bx+si],al
00002CB2  0000              add [bx+si],al
00002CB4  0000              add [bx+si],al
00002CB6  0000              add [bx+si],al
00002CB8  0000              add [bx+si],al
00002CBA  0000              add [bx+si],al
00002CBC  0000              add [bx+si],al
00002CBE  0000              add [bx+si],al
00002CC0  0000              add [bx+si],al
00002CC2  0000              add [bx+si],al
00002CC4  0000              add [bx+si],al
00002CC6  0000              add [bx+si],al
00002CC8  0000              add [bx+si],al
00002CCA  0000              add [bx+si],al
00002CCC  0000              add [bx+si],al
00002CCE  0000              add [bx+si],al
00002CD0  0000              add [bx+si],al
00002CD2  0000              add [bx+si],al
00002CD4  0000              add [bx+si],al
00002CD6  0000              add [bx+si],al
00002CD8  0000              add [bx+si],al
00002CDA  0000              add [bx+si],al
00002CDC  0000              add [bx+si],al
00002CDE  0000              add [bx+si],al
00002CE0  0000              add [bx+si],al
00002CE2  0000              add [bx+si],al
00002CE4  0000              add [bx+si],al
00002CE6  0000              add [bx+si],al
00002CE8  0000              add [bx+si],al
00002CEA  0000              add [bx+si],al
00002CEC  0000              add [bx+si],al
00002CEE  0000              add [bx+si],al
00002CF0  0000              add [bx+si],al
00002CF2  0000              add [bx+si],al
00002CF4  0000              add [bx+si],al
00002CF6  0000              add [bx+si],al
00002CF8  0000              add [bx+si],al
00002CFA  0000              add [bx+si],al
00002CFC  0000              add [bx+si],al
00002CFE  0000              add [bx+si],al
00002D00  0000              add [bx+si],al
00002D02  0000              add [bx+si],al
00002D04  0000              add [bx+si],al
00002D06  0000              add [bx+si],al
00002D08  0000              add [bx+si],al
00002D0A  0000              add [bx+si],al
00002D0C  0000              add [bx+si],al
00002D0E  0000              add [bx+si],al
00002D10  0000              add [bx+si],al
00002D12  0000              add [bx+si],al
00002D14  0000              add [bx+si],al
00002D16  0000              add [bx+si],al
00002D18  0000              add [bx+si],al
00002D1A  0000              add [bx+si],al
00002D1C  0000              add [bx+si],al
00002D1E  0000              add [bx+si],al
00002D20  0000              add [bx+si],al
00002D22  0000              add [bx+si],al
00002D24  0000              add [bx+si],al
00002D26  0000              add [bx+si],al
00002D28  0000              add [bx+si],al
00002D2A  0000              add [bx+si],al
00002D2C  0000              add [bx+si],al
00002D2E  0000              add [bx+si],al
00002D30  0000              add [bx+si],al
00002D32  0000              add [bx+si],al
00002D34  0000              add [bx+si],al
00002D36  0000              add [bx+si],al
00002D38  0000              add [bx+si],al
00002D3A  0000              add [bx+si],al
00002D3C  0000              add [bx+si],al
00002D3E  0000              add [bx+si],al
00002D40  0000              add [bx+si],al
00002D42  0000              add [bx+si],al
00002D44  0000              add [bx+si],al
00002D46  0000              add [bx+si],al
00002D48  0000              add [bx+si],al
00002D4A  0000              add [bx+si],al
00002D4C  0000              add [bx+si],al
00002D4E  0000              add [bx+si],al
00002D50  0000              add [bx+si],al
00002D52  0000              add [bx+si],al
00002D54  0000              add [bx+si],al
00002D56  0000              add [bx+si],al
00002D58  0000              add [bx+si],al
00002D5A  0000              add [bx+si],al
00002D5C  0000              add [bx+si],al
00002D5E  0000              add [bx+si],al
00002D60  0000              add [bx+si],al
00002D62  0000              add [bx+si],al
00002D64  0000              add [bx+si],al
00002D66  0000              add [bx+si],al
00002D68  0000              add [bx+si],al
00002D6A  0000              add [bx+si],al
00002D6C  0000              add [bx+si],al
00002D6E  0000              add [bx+si],al
00002D70  0000              add [bx+si],al
00002D72  0000              add [bx+si],al
00002D74  0000              add [bx+si],al
00002D76  0000              add [bx+si],al
00002D78  0000              add [bx+si],al
00002D7A  0000              add [bx+si],al
00002D7C  0000              add [bx+si],al
00002D7E  0000              add [bx+si],al
00002D80  0000              add [bx+si],al
00002D82  0000              add [bx+si],al
00002D84  0000              add [bx+si],al
00002D86  0000              add [bx+si],al
00002D88  0000              add [bx+si],al
00002D8A  0000              add [bx+si],al
00002D8C  0000              add [bx+si],al
00002D8E  0000              add [bx+si],al
00002D90  0000              add [bx+si],al
00002D92  0000              add [bx+si],al
00002D94  0000              add [bx+si],al
00002D96  0000              add [bx+si],al
00002D98  0000              add [bx+si],al
00002D9A  0000              add [bx+si],al
00002D9C  0000              add [bx+si],al
00002D9E  0000              add [bx+si],al
00002DA0  0000              add [bx+si],al
00002DA2  0000              add [bx+si],al
00002DA4  0000              add [bx+si],al
00002DA6  0000              add [bx+si],al
00002DA8  0000              add [bx+si],al
00002DAA  0000              add [bx+si],al
00002DAC  0000              add [bx+si],al
00002DAE  0000              add [bx+si],al
00002DB0  0000              add [bx+si],al
00002DB2  0000              add [bx+si],al
00002DB4  0000              add [bx+si],al
00002DB6  0000              add [bx+si],al
00002DB8  0000              add [bx+si],al
00002DBA  0000              add [bx+si],al
00002DBC  0000              add [bx+si],al
00002DBE  0000              add [bx+si],al
00002DC0  0000              add [bx+si],al
00002DC2  0000              add [bx+si],al
00002DC4  0000              add [bx+si],al
00002DC6  0000              add [bx+si],al
00002DC8  0000              add [bx+si],al
00002DCA  0000              add [bx+si],al
00002DCC  0000              add [bx+si],al
00002DCE  0000              add [bx+si],al
00002DD0  0000              add [bx+si],al
00002DD2  0000              add [bx+si],al
00002DD4  0000              add [bx+si],al
00002DD6  0000              add [bx+si],al
00002DD8  0000              add [bx+si],al
00002DDA  0000              add [bx+si],al
00002DDC  0000              add [bx+si],al
00002DDE  0000              add [bx+si],al
00002DE0  0000              add [bx+si],al
00002DE2  0000              add [bx+si],al
00002DE4  0000              add [bx+si],al
00002DE6  0000              add [bx+si],al
00002DE8  0000              add [bx+si],al
00002DEA  0000              add [bx+si],al
00002DEC  0000              add [bx+si],al
00002DEE  0000              add [bx+si],al
00002DF0  0000              add [bx+si],al
00002DF2  0000              add [bx+si],al
00002DF4  0000              add [bx+si],al
00002DF6  0000              add [bx+si],al
00002DF8  0000              add [bx+si],al
00002DFA  0000              add [bx+si],al
00002DFC  0000              add [bx+si],al
00002DFE  0000              add [bx+si],al
00002E00  0000              add [bx+si],al
00002E02  0000              add [bx+si],al
00002E04  0000              add [bx+si],al
00002E06  0000              add [bx+si],al
00002E08  0000              add [bx+si],al
00002E0A  0000              add [bx+si],al
00002E0C  0000              add [bx+si],al
00002E0E  0000              add [bx+si],al
00002E10  0000              add [bx+si],al
00002E12  0000              add [bx+si],al
00002E14  0000              add [bx+si],al
00002E16  0000              add [bx+si],al
00002E18  0000              add [bx+si],al
00002E1A  0000              add [bx+si],al
00002E1C  0000              add [bx+si],al
00002E1E  0000              add [bx+si],al
00002E20  0000              add [bx+si],al
00002E22  0000              add [bx+si],al
00002E24  0000              add [bx+si],al
00002E26  0000              add [bx+si],al
00002E28  0000              add [bx+si],al
00002E2A  0000              add [bx+si],al
00002E2C  0000              add [bx+si],al
00002E2E  0000              add [bx+si],al
00002E30  0000              add [bx+si],al
00002E32  0000              add [bx+si],al
00002E34  0000              add [bx+si],al
00002E36  0000              add [bx+si],al
00002E38  0000              add [bx+si],al
00002E3A  0000              add [bx+si],al
00002E3C  0000              add [bx+si],al
00002E3E  0000              add [bx+si],al
00002E40  0000              add [bx+si],al
00002E42  0000              add [bx+si],al
00002E44  0000              add [bx+si],al
00002E46  0000              add [bx+si],al
00002E48  0000              add [bx+si],al
00002E4A  0000              add [bx+si],al
00002E4C  0000              add [bx+si],al
00002E4E  0000              add [bx+si],al
00002E50  0000              add [bx+si],al
00002E52  0000              add [bx+si],al
00002E54  0000              add [bx+si],al
00002E56  0000              add [bx+si],al
00002E58  0000              add [bx+si],al
00002E5A  0000              add [bx+si],al
00002E5C  0000              add [bx+si],al
00002E5E  0000              add [bx+si],al
00002E60  0000              add [bx+si],al
00002E62  0000              add [bx+si],al
00002E64  0000              add [bx+si],al
00002E66  0000              add [bx+si],al
00002E68  0000              add [bx+si],al
00002E6A  0000              add [bx+si],al
00002E6C  0000              add [bx+si],al
00002E6E  0000              add [bx+si],al
00002E70  0000              add [bx+si],al
00002E72  0000              add [bx+si],al
00002E74  0000              add [bx+si],al
00002E76  0000              add [bx+si],al
00002E78  0000              add [bx+si],al
00002E7A  0000              add [bx+si],al
00002E7C  0000              add [bx+si],al
00002E7E  0000              add [bx+si],al
00002E80  0000              add [bx+si],al
00002E82  0000              add [bx+si],al
00002E84  0000              add [bx+si],al
00002E86  0000              add [bx+si],al
00002E88  0000              add [bx+si],al
00002E8A  0000              add [bx+si],al
00002E8C  0000              add [bx+si],al
00002E8E  0000              add [bx+si],al
00002E90  0000              add [bx+si],al
00002E92  0000              add [bx+si],al
00002E94  0000              add [bx+si],al
00002E96  0000              add [bx+si],al
00002E98  0000              add [bx+si],al
00002E9A  0000              add [bx+si],al
00002E9C  0000              add [bx+si],al
00002E9E  0000              add [bx+si],al
00002EA0  0000              add [bx+si],al
00002EA2  0000              add [bx+si],al
00002EA4  0000              add [bx+si],al
00002EA6  0000              add [bx+si],al
00002EA8  0000              add [bx+si],al
00002EAA  0000              add [bx+si],al
00002EAC  0000              add [bx+si],al
00002EAE  0000              add [bx+si],al
00002EB0  0000              add [bx+si],al
00002EB2  0000              add [bx+si],al
00002EB4  0000              add [bx+si],al
00002EB6  0000              add [bx+si],al
00002EB8  0000              add [bx+si],al
00002EBA  0000              add [bx+si],al
00002EBC  0000              add [bx+si],al
00002EBE  0000              add [bx+si],al
00002EC0  0000              add [bx+si],al
00002EC2  0000              add [bx+si],al
00002EC4  0000              add [bx+si],al
00002EC6  0000              add [bx+si],al
00002EC8  0000              add [bx+si],al
00002ECA  0000              add [bx+si],al
00002ECC  0000              add [bx+si],al
00002ECE  0000              add [bx+si],al
00002ED0  0000              add [bx+si],al
00002ED2  0000              add [bx+si],al
00002ED4  0000              add [bx+si],al
00002ED6  0000              add [bx+si],al
00002ED8  0000              add [bx+si],al
00002EDA  0000              add [bx+si],al
00002EDC  0000              add [bx+si],al
00002EDE  0000              add [bx+si],al
00002EE0  0000              add [bx+si],al
00002EE2  0000              add [bx+si],al
00002EE4  0000              add [bx+si],al
00002EE6  0000              add [bx+si],al
00002EE8  0000              add [bx+si],al
00002EEA  0000              add [bx+si],al
00002EEC  0000              add [bx+si],al
00002EEE  0000              add [bx+si],al
00002EF0  0000              add [bx+si],al
00002EF2  0000              add [bx+si],al
00002EF4  0000              add [bx+si],al
00002EF6  0000              add [bx+si],al
00002EF8  0000              add [bx+si],al
00002EFA  0000              add [bx+si],al
00002EFC  0000              add [bx+si],al
00002EFE  0000              add [bx+si],al
00002F00  0000              add [bx+si],al
00002F02  0000              add [bx+si],al
00002F04  0000              add [bx+si],al
00002F06  0000              add [bx+si],al
00002F08  0000              add [bx+si],al
00002F0A  0000              add [bx+si],al
00002F0C  0000              add [bx+si],al
00002F0E  0000              add [bx+si],al
00002F10  0000              add [bx+si],al
00002F12  0000              add [bx+si],al
00002F14  0000              add [bx+si],al
00002F16  0000              add [bx+si],al
00002F18  0000              add [bx+si],al
00002F1A  0000              add [bx+si],al
00002F1C  0000              add [bx+si],al
00002F1E  0000              add [bx+si],al
00002F20  0000              add [bx+si],al
00002F22  0000              add [bx+si],al
00002F24  0000              add [bx+si],al
00002F26  0000              add [bx+si],al
00002F28  0000              add [bx+si],al
00002F2A  0000              add [bx+si],al
00002F2C  0000              add [bx+si],al
00002F2E  0000              add [bx+si],al
00002F30  0000              add [bx+si],al
00002F32  0000              add [bx+si],al
00002F34  0000              add [bx+si],al
00002F36  0000              add [bx+si],al
00002F38  0000              add [bx+si],al
00002F3A  0000              add [bx+si],al
00002F3C  0000              add [bx+si],al
00002F3E  0000              add [bx+si],al
00002F40  0000              add [bx+si],al
00002F42  0000              add [bx+si],al
00002F44  0000              add [bx+si],al
00002F46  0000              add [bx+si],al
00002F48  0000              add [bx+si],al
00002F4A  0000              add [bx+si],al
00002F4C  0000              add [bx+si],al
00002F4E  0000              add [bx+si],al
00002F50  0000              add [bx+si],al
00002F52  0000              add [bx+si],al
00002F54  0000              add [bx+si],al
00002F56  0000              add [bx+si],al
00002F58  0000              add [bx+si],al
00002F5A  0000              add [bx+si],al
00002F5C  0000              add [bx+si],al
00002F5E  0000              add [bx+si],al
00002F60  0000              add [bx+si],al
00002F62  0000              add [bx+si],al
00002F64  0000              add [bx+si],al
00002F66  0000              add [bx+si],al
00002F68  0000              add [bx+si],al
00002F6A  0000              add [bx+si],al
00002F6C  0000              add [bx+si],al
00002F6E  0000              add [bx+si],al
00002F70  0000              add [bx+si],al
00002F72  0000              add [bx+si],al
00002F74  0000              add [bx+si],al
00002F76  0000              add [bx+si],al
00002F78  0000              add [bx+si],al
00002F7A  0000              add [bx+si],al
00002F7C  0000              add [bx+si],al
00002F7E  0000              add [bx+si],al
00002F80  0000              add [bx+si],al
00002F82  0000              add [bx+si],al
00002F84  0000              add [bx+si],al
00002F86  0000              add [bx+si],al
00002F88  0000              add [bx+si],al
00002F8A  0000              add [bx+si],al
00002F8C  0000              add [bx+si],al
00002F8E  0000              add [bx+si],al
00002F90  0000              add [bx+si],al
00002F92  0000              add [bx+si],al
00002F94  0000              add [bx+si],al
00002F96  0000              add [bx+si],al
00002F98  0000              add [bx+si],al
00002F9A  0000              add [bx+si],al
00002F9C  0000              add [bx+si],al
00002F9E  0000              add [bx+si],al
00002FA0  0000              add [bx+si],al
00002FA2  0000              add [bx+si],al
00002FA4  0000              add [bx+si],al
00002FA6  0000              add [bx+si],al
00002FA8  0000              add [bx+si],al
00002FAA  0000              add [bx+si],al
00002FAC  0000              add [bx+si],al
00002FAE  0000              add [bx+si],al
00002FB0  0000              add [bx+si],al
00002FB2  0000              add [bx+si],al
00002FB4  0000              add [bx+si],al
00002FB6  0000              add [bx+si],al
00002FB8  0000              add [bx+si],al
00002FBA  0000              add [bx+si],al
00002FBC  0000              add [bx+si],al
00002FBE  0000              add [bx+si],al
00002FC0  0000              add [bx+si],al
00002FC2  0000              add [bx+si],al
00002FC4  0000              add [bx+si],al
00002FC6  0000              add [bx+si],al
00002FC8  0000              add [bx+si],al
00002FCA  0000              add [bx+si],al
00002FCC  0000              add [bx+si],al
00002FCE  0000              add [bx+si],al
00002FD0  0000              add [bx+si],al
00002FD2  0000              add [bx+si],al
00002FD4  0000              add [bx+si],al
00002FD6  0000              add [bx+si],al
00002FD8  0000              add [bx+si],al
00002FDA  0000              add [bx+si],al
00002FDC  0000              add [bx+si],al
00002FDE  0000              add [bx+si],al
00002FE0  0000              add [bx+si],al
00002FE2  0000              add [bx+si],al
00002FE4  0000              add [bx+si],al
00002FE6  0000              add [bx+si],al
00002FE8  0000              add [bx+si],al
00002FEA  0000              add [bx+si],al
00002FEC  0000              add [bx+si],al
00002FEE  0000              add [bx+si],al
00002FF0  0000              add [bx+si],al
00002FF2  0000              add [bx+si],al
00002FF4  0000              add [bx+si],al
00002FF6  0000              add [bx+si],al
00002FF8  0000              add [bx+si],al
00002FFA  0000              add [bx+si],al
00002FFC  0000              add [bx+si],al
00002FFE  0000              add [bx+si],al
00003000  0000              add [bx+si],al
00003002  0000              add [bx+si],al
00003004  0000              add [bx+si],al
00003006  0000              add [bx+si],al
00003008  0000              add [bx+si],al
0000300A  0000              add [bx+si],al
0000300C  0000              add [bx+si],al
0000300E  0000              add [bx+si],al
00003010  0000              add [bx+si],al
00003012  0000              add [bx+si],al
00003014  0000              add [bx+si],al
00003016  0000              add [bx+si],al
00003018  0000              add [bx+si],al
0000301A  0000              add [bx+si],al
0000301C  0000              add [bx+si],al
0000301E  0000              add [bx+si],al
00003020  0000              add [bx+si],al
00003022  0000              add [bx+si],al
00003024  0000              add [bx+si],al
00003026  0000              add [bx+si],al
00003028  0000              add [bx+si],al
0000302A  0000              add [bx+si],al
0000302C  0000              add [bx+si],al
0000302E  0000              add [bx+si],al
00003030  0000              add [bx+si],al
00003032  0000              add [bx+si],al
00003034  0000              add [bx+si],al
00003036  0000              add [bx+si],al
00003038  0000              add [bx+si],al
0000303A  0000              add [bx+si],al
0000303C  0000              add [bx+si],al
0000303E  0000              add [bx+si],al
00003040  0000              add [bx+si],al
00003042  0000              add [bx+si],al
00003044  0000              add [bx+si],al
00003046  0000              add [bx+si],al
00003048  0000              add [bx+si],al
0000304A  0000              add [bx+si],al
0000304C  0000              add [bx+si],al
0000304E  0000              add [bx+si],al
00003050  0000              add [bx+si],al
00003052  0000              add [bx+si],al
00003054  0000              add [bx+si],al
00003056  0000              add [bx+si],al
00003058  0000              add [bx+si],al
0000305A  0000              add [bx+si],al
0000305C  0000              add [bx+si],al
0000305E  0000              add [bx+si],al
00003060  0000              add [bx+si],al
00003062  0000              add [bx+si],al
00003064  0000              add [bx+si],al
00003066  0000              add [bx+si],al
00003068  0000              add [bx+si],al
0000306A  0000              add [bx+si],al
0000306C  0000              add [bx+si],al
0000306E  0000              add [bx+si],al
00003070  0000              add [bx+si],al
00003072  0000              add [bx+si],al
00003074  0000              add [bx+si],al
00003076  0000              add [bx+si],al
00003078  0000              add [bx+si],al
0000307A  0000              add [bx+si],al
0000307C  0000              add [bx+si],al
0000307E  0000              add [bx+si],al
00003080  0000              add [bx+si],al
00003082  0000              add [bx+si],al
00003084  0000              add [bx+si],al
00003086  0000              add [bx+si],al
00003088  0000              add [bx+si],al
0000308A  0000              add [bx+si],al
0000308C  0000              add [bx+si],al
0000308E  0000              add [bx+si],al
00003090  0000              add [bx+si],al
00003092  0000              add [bx+si],al
00003094  0000              add [bx+si],al
00003096  0000              add [bx+si],al
00003098  0000              add [bx+si],al
0000309A  0000              add [bx+si],al
0000309C  0000              add [bx+si],al
0000309E  0000              add [bx+si],al
000030A0  0000              add [bx+si],al
000030A2  0000              add [bx+si],al
000030A4  0000              add [bx+si],al
000030A6  0000              add [bx+si],al
000030A8  0000              add [bx+si],al
000030AA  0000              add [bx+si],al
000030AC  0000              add [bx+si],al
000030AE  0000              add [bx+si],al
000030B0  0000              add [bx+si],al
000030B2  0000              add [bx+si],al
000030B4  0000              add [bx+si],al
000030B6  0000              add [bx+si],al
000030B8  0000              add [bx+si],al
000030BA  0000              add [bx+si],al
000030BC  0000              add [bx+si],al
000030BE  0000              add [bx+si],al
000030C0  0000              add [bx+si],al
000030C2  0000              add [bx+si],al
000030C4  0000              add [bx+si],al
000030C6  0000              add [bx+si],al
000030C8  0000              add [bx+si],al
000030CA  0000              add [bx+si],al
000030CC  0000              add [bx+si],al
000030CE  0000              add [bx+si],al
000030D0  0000              add [bx+si],al
000030D2  0000              add [bx+si],al
000030D4  0000              add [bx+si],al
000030D6  0000              add [bx+si],al
000030D8  0000              add [bx+si],al
000030DA  0000              add [bx+si],al
000030DC  0000              add [bx+si],al
000030DE  0000              add [bx+si],al
000030E0  0000              add [bx+si],al
000030E2  0000              add [bx+si],al
000030E4  0000              add [bx+si],al
000030E6  0000              add [bx+si],al
000030E8  0000              add [bx+si],al
000030EA  0000              add [bx+si],al
000030EC  0000              add [bx+si],al
000030EE  0000              add [bx+si],al
000030F0  0000              add [bx+si],al
000030F2  0000              add [bx+si],al
000030F4  0000              add [bx+si],al
000030F6  0000              add [bx+si],al
000030F8  0000              add [bx+si],al
000030FA  0000              add [bx+si],al
000030FC  0000              add [bx+si],al
000030FE  0000              add [bx+si],al
00003100  0000              add [bx+si],al
00003102  0000              add [bx+si],al
00003104  0000              add [bx+si],al
00003106  0000              add [bx+si],al
00003108  0000              add [bx+si],al
0000310A  0000              add [bx+si],al
0000310C  0000              add [bx+si],al
0000310E  0000              add [bx+si],al
00003110  0000              add [bx+si],al
00003112  0000              add [bx+si],al
00003114  0000              add [bx+si],al
00003116  0000              add [bx+si],al
00003118  0000              add [bx+si],al
0000311A  0000              add [bx+si],al
0000311C  0000              add [bx+si],al
0000311E  0000              add [bx+si],al
00003120  0000              add [bx+si],al
00003122  0000              add [bx+si],al
00003124  0000              add [bx+si],al
00003126  0000              add [bx+si],al
00003128  0000              add [bx+si],al
0000312A  0000              add [bx+si],al
0000312C  0000              add [bx+si],al
0000312E  0000              add [bx+si],al
00003130  0000              add [bx+si],al
00003132  0000              add [bx+si],al
00003134  0000              add [bx+si],al
00003136  0000              add [bx+si],al
00003138  0000              add [bx+si],al
0000313A  0000              add [bx+si],al
0000313C  0000              add [bx+si],al
0000313E  0000              add [bx+si],al
00003140  0000              add [bx+si],al
00003142  0000              add [bx+si],al
00003144  0000              add [bx+si],al
00003146  0000              add [bx+si],al
00003148  0000              add [bx+si],al
0000314A  0000              add [bx+si],al
0000314C  0000              add [bx+si],al
0000314E  0000              add [bx+si],al
00003150  0000              add [bx+si],al
00003152  0000              add [bx+si],al
00003154  0000              add [bx+si],al
00003156  0000              add [bx+si],al
00003158  0000              add [bx+si],al
0000315A  0000              add [bx+si],al
0000315C  0000              add [bx+si],al
0000315E  0000              add [bx+si],al
00003160  0000              add [bx+si],al
00003162  0000              add [bx+si],al
00003164  0000              add [bx+si],al
00003166  0000              add [bx+si],al
00003168  0000              add [bx+si],al
0000316A  0000              add [bx+si],al
0000316C  0000              add [bx+si],al
0000316E  0000              add [bx+si],al
00003170  0000              add [bx+si],al
00003172  0000              add [bx+si],al
00003174  0000              add [bx+si],al
00003176  0000              add [bx+si],al
00003178  0000              add [bx+si],al
0000317A  0000              add [bx+si],al
0000317C  0000              add [bx+si],al
0000317E  0000              add [bx+si],al
00003180  0000              add [bx+si],al
00003182  0000              add [bx+si],al
00003184  0000              add [bx+si],al
00003186  0000              add [bx+si],al
00003188  0000              add [bx+si],al
0000318A  0000              add [bx+si],al
0000318C  0000              add [bx+si],al
0000318E  0000              add [bx+si],al
00003190  0000              add [bx+si],al
00003192  0000              add [bx+si],al
00003194  0000              add [bx+si],al
00003196  0000              add [bx+si],al
00003198  0000              add [bx+si],al
0000319A  0000              add [bx+si],al
0000319C  0000              add [bx+si],al
0000319E  0000              add [bx+si],al
000031A0  0000              add [bx+si],al
000031A2  0000              add [bx+si],al
000031A4  0000              add [bx+si],al
000031A6  0000              add [bx+si],al
000031A8  0000              add [bx+si],al
000031AA  0000              add [bx+si],al
000031AC  0000              add [bx+si],al
000031AE  0000              add [bx+si],al
000031B0  0000              add [bx+si],al
000031B2  0000              add [bx+si],al
000031B4  0000              add [bx+si],al
000031B6  0000              add [bx+si],al
000031B8  0000              add [bx+si],al
000031BA  0000              add [bx+si],al
000031BC  0000              add [bx+si],al
000031BE  0000              add [bx+si],al
000031C0  0000              add [bx+si],al
000031C2  0000              add [bx+si],al
000031C4  0000              add [bx+si],al
000031C6  0000              add [bx+si],al
000031C8  0000              add [bx+si],al
000031CA  0000              add [bx+si],al
000031CC  0000              add [bx+si],al
000031CE  0000              add [bx+si],al
000031D0  0000              add [bx+si],al
000031D2  0000              add [bx+si],al
000031D4  0000              add [bx+si],al
000031D6  0000              add [bx+si],al
000031D8  0000              add [bx+si],al
000031DA  0000              add [bx+si],al
000031DC  0000              add [bx+si],al
000031DE  0000              add [bx+si],al
000031E0  0000              add [bx+si],al
000031E2  0000              add [bx+si],al
000031E4  0000              add [bx+si],al
000031E6  0000              add [bx+si],al
000031E8  0000              add [bx+si],al
000031EA  0000              add [bx+si],al
000031EC  0000              add [bx+si],al
000031EE  0000              add [bx+si],al
000031F0  0000              add [bx+si],al
000031F2  0000              add [bx+si],al
000031F4  0000              add [bx+si],al
000031F6  0000              add [bx+si],al
000031F8  0000              add [bx+si],al
000031FA  0000              add [bx+si],al
000031FC  0000              add [bx+si],al
000031FE  0000              add [bx+si],al
00003200  0000              add [bx+si],al
00003202  0000              add [bx+si],al
00003204  0000              add [bx+si],al
00003206  0000              add [bx+si],al
00003208  0000              add [bx+si],al
0000320A  0000              add [bx+si],al
0000320C  0000              add [bx+si],al
0000320E  0000              add [bx+si],al
00003210  0000              add [bx+si],al
00003212  0000              add [bx+si],al
00003214  0000              add [bx+si],al
00003216  0000              add [bx+si],al
00003218  0000              add [bx+si],al
0000321A  0000              add [bx+si],al
0000321C  0000              add [bx+si],al
0000321E  0000              add [bx+si],al
00003220  0000              add [bx+si],al
00003222  0000              add [bx+si],al
00003224  0000              add [bx+si],al
00003226  0000              add [bx+si],al
00003228  0000              add [bx+si],al
0000322A  0000              add [bx+si],al
0000322C  0000              add [bx+si],al
0000322E  0000              add [bx+si],al
00003230  0000              add [bx+si],al
00003232  0000              add [bx+si],al
00003234  0000              add [bx+si],al
00003236  0000              add [bx+si],al
00003238  0000              add [bx+si],al
0000323A  0000              add [bx+si],al
0000323C  0000              add [bx+si],al
0000323E  0000              add [bx+si],al
00003240  0000              add [bx+si],al
00003242  0000              add [bx+si],al
00003244  0000              add [bx+si],al
00003246  0000              add [bx+si],al
00003248  0000              add [bx+si],al
0000324A  0000              add [bx+si],al
0000324C  0000              add [bx+si],al
0000324E  0000              add [bx+si],al
00003250  0000              add [bx+si],al
00003252  0000              add [bx+si],al
00003254  0000              add [bx+si],al
00003256  0000              add [bx+si],al
00003258  0000              add [bx+si],al
0000325A  0000              add [bx+si],al
0000325C  0000              add [bx+si],al
0000325E  0000              add [bx+si],al
00003260  0000              add [bx+si],al
00003262  0000              add [bx+si],al
00003264  0000              add [bx+si],al
00003266  0000              add [bx+si],al
00003268  0000              add [bx+si],al
0000326A  0000              add [bx+si],al
0000326C  0000              add [bx+si],al
0000326E  0000              add [bx+si],al
00003270  0000              add [bx+si],al
00003272  0000              add [bx+si],al
00003274  0000              add [bx+si],al
00003276  0000              add [bx+si],al
00003278  0000              add [bx+si],al
0000327A  0000              add [bx+si],al
0000327C  0000              add [bx+si],al
0000327E  0000              add [bx+si],al
00003280  0000              add [bx+si],al
00003282  0000              add [bx+si],al
00003284  0000              add [bx+si],al
00003286  0000              add [bx+si],al
00003288  0000              add [bx+si],al
0000328A  0000              add [bx+si],al
0000328C  0000              add [bx+si],al
0000328E  0000              add [bx+si],al
00003290  0000              add [bx+si],al
00003292  0000              add [bx+si],al
00003294  0000              add [bx+si],al
00003296  0000              add [bx+si],al
00003298  0000              add [bx+si],al
0000329A  0000              add [bx+si],al
0000329C  0000              add [bx+si],al
0000329E  0000              add [bx+si],al
000032A0  0000              add [bx+si],al
000032A2  0000              add [bx+si],al
000032A4  0000              add [bx+si],al
000032A6  0000              add [bx+si],al
000032A8  0000              add [bx+si],al
000032AA  0000              add [bx+si],al
000032AC  0000              add [bx+si],al
000032AE  0000              add [bx+si],al
000032B0  0000              add [bx+si],al
000032B2  0000              add [bx+si],al
000032B4  0000              add [bx+si],al
000032B6  0000              add [bx+si],al
000032B8  0000              add [bx+si],al
000032BA  0000              add [bx+si],al
000032BC  0000              add [bx+si],al
000032BE  0000              add [bx+si],al
000032C0  0000              add [bx+si],al
000032C2  0000              add [bx+si],al
000032C4  0000              add [bx+si],al
000032C6  0000              add [bx+si],al
000032C8  0000              add [bx+si],al
000032CA  0000              add [bx+si],al
000032CC  0000              add [bx+si],al
000032CE  0000              add [bx+si],al
000032D0  0000              add [bx+si],al
000032D2  0000              add [bx+si],al
000032D4  0000              add [bx+si],al
000032D6  0000              add [bx+si],al
000032D8  0000              add [bx+si],al
000032DA  0000              add [bx+si],al
000032DC  0000              add [bx+si],al
000032DE  0000              add [bx+si],al
000032E0  0000              add [bx+si],al
000032E2  0000              add [bx+si],al
000032E4  0000              add [bx+si],al
000032E6  0000              add [bx+si],al
000032E8  0000              add [bx+si],al
000032EA  0000              add [bx+si],al
000032EC  0000              add [bx+si],al
000032EE  0000              add [bx+si],al
000032F0  0000              add [bx+si],al
000032F2  0000              add [bx+si],al
000032F4  0000              add [bx+si],al
000032F6  0000              add [bx+si],al
000032F8  0000              add [bx+si],al
000032FA  0000              add [bx+si],al
000032FC  0000              add [bx+si],al
000032FE  0000              add [bx+si],al
00003300  0000              add [bx+si],al
00003302  0000              add [bx+si],al
00003304  0000              add [bx+si],al
00003306  0000              add [bx+si],al
00003308  0000              add [bx+si],al
0000330A  0000              add [bx+si],al
0000330C  0000              add [bx+si],al
0000330E  0000              add [bx+si],al
00003310  0000              add [bx+si],al
00003312  0000              add [bx+si],al
00003314  0000              add [bx+si],al
00003316  0000              add [bx+si],al
00003318  0000              add [bx+si],al
0000331A  0000              add [bx+si],al
0000331C  0000              add [bx+si],al
0000331E  0000              add [bx+si],al
00003320  0000              add [bx+si],al
00003322  0000              add [bx+si],al
00003324  0000              add [bx+si],al
00003326  0000              add [bx+si],al
00003328  0000              add [bx+si],al
0000332A  0000              add [bx+si],al
0000332C  0000              add [bx+si],al
0000332E  0000              add [bx+si],al
00003330  0000              add [bx+si],al
00003332  0000              add [bx+si],al
00003334  0000              add [bx+si],al
00003336  0000              add [bx+si],al
00003338  0000              add [bx+si],al
0000333A  0000              add [bx+si],al
0000333C  0000              add [bx+si],al
0000333E  0000              add [bx+si],al
00003340  0000              add [bx+si],al
00003342  0000              add [bx+si],al
00003344  0000              add [bx+si],al
00003346  0000              add [bx+si],al
00003348  0000              add [bx+si],al
0000334A  0000              add [bx+si],al
0000334C  0000              add [bx+si],al
0000334E  0000              add [bx+si],al
00003350  0000              add [bx+si],al
00003352  0000              add [bx+si],al
00003354  0000              add [bx+si],al
00003356  0000              add [bx+si],al
00003358  0000              add [bx+si],al
0000335A  0000              add [bx+si],al
0000335C  0000              add [bx+si],al
0000335E  0000              add [bx+si],al
00003360  0000              add [bx+si],al
00003362  0000              add [bx+si],al
00003364  0000              add [bx+si],al
00003366  0000              add [bx+si],al
00003368  0000              add [bx+si],al
0000336A  0000              add [bx+si],al
0000336C  0000              add [bx+si],al
0000336E  0000              add [bx+si],al
00003370  0000              add [bx+si],al
00003372  0000              add [bx+si],al
00003374  0000              add [bx+si],al
00003376  0000              add [bx+si],al
00003378  0000              add [bx+si],al
0000337A  0000              add [bx+si],al
0000337C  0000              add [bx+si],al
0000337E  0000              add [bx+si],al
00003380  0000              add [bx+si],al
00003382  0000              add [bx+si],al
00003384  0000              add [bx+si],al
00003386  0000              add [bx+si],al
00003388  0000              add [bx+si],al
0000338A  0000              add [bx+si],al
0000338C  0000              add [bx+si],al
0000338E  0000              add [bx+si],al
00003390  0000              add [bx+si],al
00003392  0000              add [bx+si],al
00003394  0000              add [bx+si],al
00003396  0000              add [bx+si],al
00003398  0000              add [bx+si],al
0000339A  0000              add [bx+si],al
0000339C  0000              add [bx+si],al
0000339E  0000              add [bx+si],al
000033A0  0000              add [bx+si],al
000033A2  0000              add [bx+si],al
000033A4  0000              add [bx+si],al
000033A6  0000              add [bx+si],al
000033A8  0000              add [bx+si],al
000033AA  0000              add [bx+si],al
000033AC  0000              add [bx+si],al
000033AE  0000              add [bx+si],al
000033B0  0000              add [bx+si],al
000033B2  0000              add [bx+si],al
000033B4  0000              add [bx+si],al
000033B6  0000              add [bx+si],al
000033B8  0000              add [bx+si],al
000033BA  0000              add [bx+si],al
000033BC  0000              add [bx+si],al
000033BE  0000              add [bx+si],al
000033C0  0000              add [bx+si],al
000033C2  0000              add [bx+si],al
000033C4  0000              add [bx+si],al
000033C6  0000              add [bx+si],al
000033C8  0000              add [bx+si],al
000033CA  0000              add [bx+si],al
000033CC  0000              add [bx+si],al
000033CE  0000              add [bx+si],al
000033D0  0000              add [bx+si],al
000033D2  0000              add [bx+si],al
000033D4  0000              add [bx+si],al
000033D6  0000              add [bx+si],al
000033D8  0000              add [bx+si],al
000033DA  0000              add [bx+si],al
000033DC  0000              add [bx+si],al
000033DE  0000              add [bx+si],al
000033E0  0000              add [bx+si],al
000033E2  0000              add [bx+si],al
000033E4  0000              add [bx+si],al
000033E6  0000              add [bx+si],al
000033E8  0000              add [bx+si],al
000033EA  0000              add [bx+si],al
000033EC  0000              add [bx+si],al
000033EE  0000              add [bx+si],al
000033F0  0000              add [bx+si],al
000033F2  0000              add [bx+si],al
000033F4  0000              add [bx+si],al
000033F6  0000              add [bx+si],al
000033F8  0000              add [bx+si],al
000033FA  0000              add [bx+si],al
000033FC  0000              add [bx+si],al
000033FE  0000              add [bx+si],al
00003400  0000              add [bx+si],al
00003402  0000              add [bx+si],al
00003404  0000              add [bx+si],al
00003406  0000              add [bx+si],al
00003408  0000              add [bx+si],al
0000340A  0000              add [bx+si],al
0000340C  0000              add [bx+si],al
0000340E  0000              add [bx+si],al
00003410  0000              add [bx+si],al
00003412  0000              add [bx+si],al
00003414  0000              add [bx+si],al
00003416  0000              add [bx+si],al
00003418  0000              add [bx+si],al
0000341A  0000              add [bx+si],al
0000341C  0000              add [bx+si],al
0000341E  0000              add [bx+si],al
00003420  0000              add [bx+si],al
00003422  0000              add [bx+si],al
00003424  0000              add [bx+si],al
00003426  0000              add [bx+si],al
00003428  0000              add [bx+si],al
0000342A  0000              add [bx+si],al
0000342C  0000              add [bx+si],al
0000342E  0000              add [bx+si],al
00003430  0000              add [bx+si],al
00003432  0000              add [bx+si],al
00003434  0000              add [bx+si],al
00003436  0000              add [bx+si],al
00003438  0000              add [bx+si],al
0000343A  0000              add [bx+si],al
0000343C  0000              add [bx+si],al
0000343E  0000              add [bx+si],al
00003440  0000              add [bx+si],al
00003442  0000              add [bx+si],al
00003444  0000              add [bx+si],al
00003446  0000              add [bx+si],al
00003448  0000              add [bx+si],al
0000344A  0000              add [bx+si],al
0000344C  0000              add [bx+si],al
0000344E  0000              add [bx+si],al
00003450  0000              add [bx+si],al
00003452  0000              add [bx+si],al
00003454  0000              add [bx+si],al
00003456  0000              add [bx+si],al
00003458  0000              add [bx+si],al
0000345A  0000              add [bx+si],al
0000345C  0000              add [bx+si],al
0000345E  0000              add [bx+si],al
00003460  0000              add [bx+si],al
00003462  0000              add [bx+si],al
00003464  0000              add [bx+si],al
00003466  0000              add [bx+si],al
00003468  0000              add [bx+si],al
0000346A  0000              add [bx+si],al
0000346C  0000              add [bx+si],al
0000346E  0000              add [bx+si],al
00003470  0000              add [bx+si],al
00003472  0000              add [bx+si],al
00003474  0000              add [bx+si],al
00003476  0000              add [bx+si],al
00003478  0000              add [bx+si],al
0000347A  0000              add [bx+si],al
0000347C  0000              add [bx+si],al
0000347E  0000              add [bx+si],al
00003480  0000              add [bx+si],al
00003482  0000              add [bx+si],al
00003484  0000              add [bx+si],al
00003486  0000              add [bx+si],al
00003488  0000              add [bx+si],al
0000348A  0000              add [bx+si],al
0000348C  0000              add [bx+si],al
0000348E  0000              add [bx+si],al
00003490  0000              add [bx+si],al
00003492  0000              add [bx+si],al
00003494  0000              add [bx+si],al
00003496  0000              add [bx+si],al
00003498  0000              add [bx+si],al
0000349A  0000              add [bx+si],al
0000349C  0000              add [bx+si],al
0000349E  0000              add [bx+si],al
000034A0  0000              add [bx+si],al
000034A2  0000              add [bx+si],al
000034A4  0000              add [bx+si],al
000034A6  0000              add [bx+si],al
000034A8  0000              add [bx+si],al
000034AA  0000              add [bx+si],al
000034AC  0000              add [bx+si],al
000034AE  0000              add [bx+si],al
000034B0  0000              add [bx+si],al
000034B2  0000              add [bx+si],al
000034B4  0000              add [bx+si],al
000034B6  0000              add [bx+si],al
000034B8  0000              add [bx+si],al
000034BA  0000              add [bx+si],al
000034BC  0000              add [bx+si],al
000034BE  0000              add [bx+si],al
000034C0  0000              add [bx+si],al
000034C2  0000              add [bx+si],al
000034C4  0000              add [bx+si],al
000034C6  0000              add [bx+si],al
000034C8  0000              add [bx+si],al
000034CA  0000              add [bx+si],al
000034CC  0000              add [bx+si],al
000034CE  0000              add [bx+si],al
000034D0  0000              add [bx+si],al
000034D2  0000              add [bx+si],al
000034D4  0000              add [bx+si],al
000034D6  0000              add [bx+si],al
000034D8  0000              add [bx+si],al
000034DA  0000              add [bx+si],al
000034DC  0000              add [bx+si],al
000034DE  0000              add [bx+si],al
000034E0  0000              add [bx+si],al
000034E2  0000              add [bx+si],al
000034E4  0000              add [bx+si],al
000034E6  0000              add [bx+si],al
000034E8  0000              add [bx+si],al
000034EA  0000              add [bx+si],al
000034EC  0000              add [bx+si],al
000034EE  0000              add [bx+si],al
000034F0  0000              add [bx+si],al
000034F2  0000              add [bx+si],al
000034F4  0000              add [bx+si],al
000034F6  0000              add [bx+si],al
000034F8  0000              add [bx+si],al
000034FA  0000              add [bx+si],al
000034FC  0000              add [bx+si],al
000034FE  0000              add [bx+si],al
00003500  0000              add [bx+si],al
00003502  0000              add [bx+si],al
00003504  0000              add [bx+si],al
00003506  0000              add [bx+si],al
00003508  0000              add [bx+si],al
0000350A  0000              add [bx+si],al
0000350C  0000              add [bx+si],al
0000350E  0000              add [bx+si],al
00003510  0000              add [bx+si],al
00003512  0000              add [bx+si],al
00003514  0000              add [bx+si],al
00003516  0000              add [bx+si],al
00003518  0000              add [bx+si],al
0000351A  0000              add [bx+si],al
0000351C  0000              add [bx+si],al
0000351E  0000              add [bx+si],al
00003520  0000              add [bx+si],al
00003522  0000              add [bx+si],al
00003524  0000              add [bx+si],al
00003526  0000              add [bx+si],al
00003528  0000              add [bx+si],al
0000352A  0000              add [bx+si],al
0000352C  0000              add [bx+si],al
0000352E  0000              add [bx+si],al
00003530  0000              add [bx+si],al
00003532  0000              add [bx+si],al
00003534  0000              add [bx+si],al
00003536  0000              add [bx+si],al
00003538  0000              add [bx+si],al
0000353A  0000              add [bx+si],al
0000353C  0000              add [bx+si],al
0000353E  0000              add [bx+si],al
00003540  0000              add [bx+si],al
00003542  0000              add [bx+si],al
00003544  0000              add [bx+si],al
00003546  0000              add [bx+si],al
00003548  0000              add [bx+si],al
0000354A  0000              add [bx+si],al
0000354C  0000              add [bx+si],al
0000354E  0000              add [bx+si],al
00003550  0000              add [bx+si],al
00003552  0000              add [bx+si],al
00003554  0000              add [bx+si],al
00003556  0000              add [bx+si],al
00003558  0000              add [bx+si],al
0000355A  0000              add [bx+si],al
0000355C  0000              add [bx+si],al
0000355E  0000              add [bx+si],al
00003560  0000              add [bx+si],al
00003562  0000              add [bx+si],al
00003564  0000              add [bx+si],al
00003566  0000              add [bx+si],al
00003568  0000              add [bx+si],al
0000356A  0000              add [bx+si],al
0000356C  0000              add [bx+si],al
0000356E  0000              add [bx+si],al
00003570  0000              add [bx+si],al
00003572  0000              add [bx+si],al
00003574  0000              add [bx+si],al
00003576  0000              add [bx+si],al
00003578  0000              add [bx+si],al
0000357A  0000              add [bx+si],al
0000357C  0000              add [bx+si],al
0000357E  0000              add [bx+si],al
00003580  0000              add [bx+si],al
00003582  0000              add [bx+si],al
00003584  0000              add [bx+si],al
00003586  0000              add [bx+si],al
00003588  0000              add [bx+si],al
0000358A  0000              add [bx+si],al
0000358C  0000              add [bx+si],al
0000358E  0000              add [bx+si],al
00003590  0000              add [bx+si],al
00003592  0000              add [bx+si],al
00003594  0000              add [bx+si],al
00003596  0000              add [bx+si],al
00003598  0000              add [bx+si],al
0000359A  0000              add [bx+si],al
0000359C  0000              add [bx+si],al
0000359E  0000              add [bx+si],al
000035A0  0000              add [bx+si],al
000035A2  0000              add [bx+si],al
000035A4  0000              add [bx+si],al
000035A6  0000              add [bx+si],al
000035A8  0000              add [bx+si],al
000035AA  0000              add [bx+si],al
000035AC  0000              add [bx+si],al
000035AE  0000              add [bx+si],al
000035B0  0000              add [bx+si],al
000035B2  0000              add [bx+si],al
000035B4  0000              add [bx+si],al
000035B6  0000              add [bx+si],al
000035B8  0000              add [bx+si],al
000035BA  0000              add [bx+si],al
000035BC  0000              add [bx+si],al
000035BE  0000              add [bx+si],al
000035C0  0000              add [bx+si],al
000035C2  0000              add [bx+si],al
000035C4  0000              add [bx+si],al
000035C6  0000              add [bx+si],al
000035C8  0000              add [bx+si],al
000035CA  0000              add [bx+si],al
000035CC  0000              add [bx+si],al
000035CE  0000              add [bx+si],al
000035D0  0000              add [bx+si],al
000035D2  0000              add [bx+si],al
000035D4  0000              add [bx+si],al
000035D6  0000              add [bx+si],al
000035D8  0000              add [bx+si],al
000035DA  0000              add [bx+si],al
000035DC  0000              add [bx+si],al
000035DE  0000              add [bx+si],al
000035E0  0000              add [bx+si],al
000035E2  0000              add [bx+si],al
000035E4  0000              add [bx+si],al
000035E6  0000              add [bx+si],al
000035E8  0000              add [bx+si],al
000035EA  0000              add [bx+si],al
000035EC  0000              add [bx+si],al
000035EE  0000              add [bx+si],al
000035F0  0000              add [bx+si],al
000035F2  0000              add [bx+si],al
000035F4  0000              add [bx+si],al
000035F6  0000              add [bx+si],al
000035F8  0000              add [bx+si],al
000035FA  0000              add [bx+si],al
000035FC  0000              add [bx+si],al
000035FE  0000              add [bx+si],al
00003600  0000              add [bx+si],al
00003602  0000              add [bx+si],al
00003604  0000              add [bx+si],al
00003606  0000              add [bx+si],al
00003608  0000              add [bx+si],al
0000360A  0000              add [bx+si],al
0000360C  0000              add [bx+si],al
0000360E  0000              add [bx+si],al
00003610  0000              add [bx+si],al
00003612  0000              add [bx+si],al
00003614  0000              add [bx+si],al
00003616  0000              add [bx+si],al
00003618  0000              add [bx+si],al
0000361A  0000              add [bx+si],al
0000361C  0000              add [bx+si],al
0000361E  0000              add [bx+si],al
00003620  0000              add [bx+si],al
00003622  0000              add [bx+si],al
00003624  0000              add [bx+si],al
00003626  0000              add [bx+si],al
00003628  0000              add [bx+si],al
0000362A  0000              add [bx+si],al
0000362C  0000              add [bx+si],al
0000362E  0000              add [bx+si],al
00003630  0000              add [bx+si],al
00003632  0000              add [bx+si],al
00003634  0000              add [bx+si],al
00003636  0000              add [bx+si],al
00003638  0000              add [bx+si],al
0000363A  0000              add [bx+si],al
0000363C  0000              add [bx+si],al
0000363E  0000              add [bx+si],al
00003640  0000              add [bx+si],al
00003642  0000              add [bx+si],al
00003644  0000              add [bx+si],al
00003646  0000              add [bx+si],al
00003648  0000              add [bx+si],al
0000364A  0000              add [bx+si],al
0000364C  0000              add [bx+si],al
0000364E  0000              add [bx+si],al
00003650  0000              add [bx+si],al
00003652  0000              add [bx+si],al
00003654  0000              add [bx+si],al
00003656  0000              add [bx+si],al
00003658  0000              add [bx+si],al
0000365A  0000              add [bx+si],al
0000365C  0000              add [bx+si],al
0000365E  0000              add [bx+si],al
00003660  0000              add [bx+si],al
00003662  0000              add [bx+si],al
00003664  0000              add [bx+si],al
00003666  0000              add [bx+si],al
00003668  0000              add [bx+si],al
0000366A  0000              add [bx+si],al
0000366C  0000              add [bx+si],al
0000366E  0000              add [bx+si],al
00003670  0000              add [bx+si],al
00003672  0000              add [bx+si],al
00003674  0000              add [bx+si],al
00003676  0000              add [bx+si],al
00003678  0000              add [bx+si],al
0000367A  0000              add [bx+si],al
0000367C  0000              add [bx+si],al
0000367E  0000              add [bx+si],al
00003680  0000              add [bx+si],al
00003682  0000              add [bx+si],al
00003684  0000              add [bx+si],al
00003686  0000              add [bx+si],al
00003688  0000              add [bx+si],al
0000368A  0000              add [bx+si],al
0000368C  0000              add [bx+si],al
0000368E  0000              add [bx+si],al
00003690  0000              add [bx+si],al
00003692  0000              add [bx+si],al
00003694  0000              add [bx+si],al
00003696  0000              add [bx+si],al
00003698  0000              add [bx+si],al
0000369A  0000              add [bx+si],al
0000369C  0000              add [bx+si],al
0000369E  0000              add [bx+si],al
000036A0  0000              add [bx+si],al
000036A2  0000              add [bx+si],al
000036A4  0000              add [bx+si],al
000036A6  0000              add [bx+si],al
000036A8  0000              add [bx+si],al
000036AA  0000              add [bx+si],al
000036AC  0000              add [bx+si],al
000036AE  0000              add [bx+si],al
000036B0  0000              add [bx+si],al
000036B2  0000              add [bx+si],al
000036B4  0000              add [bx+si],al
000036B6  0000              add [bx+si],al
000036B8  0000              add [bx+si],al
000036BA  0000              add [bx+si],al
000036BC  0000              add [bx+si],al
000036BE  0000              add [bx+si],al
000036C0  0000              add [bx+si],al
000036C2  0000              add [bx+si],al
000036C4  0000              add [bx+si],al
000036C6  0000              add [bx+si],al
000036C8  0000              add [bx+si],al
000036CA  0000              add [bx+si],al
000036CC  0000              add [bx+si],al
000036CE  0000              add [bx+si],al
000036D0  0000              add [bx+si],al
000036D2  0000              add [bx+si],al
000036D4  0000              add [bx+si],al
000036D6  0000              add [bx+si],al
000036D8  0000              add [bx+si],al
000036DA  0000              add [bx+si],al
000036DC  0000              add [bx+si],al
000036DE  0000              add [bx+si],al
000036E0  0000              add [bx+si],al
000036E2  0000              add [bx+si],al
000036E4  0000              add [bx+si],al
000036E6  0000              add [bx+si],al
000036E8  0000              add [bx+si],al
000036EA  0000              add [bx+si],al
000036EC  0000              add [bx+si],al
000036EE  0000              add [bx+si],al
000036F0  0000              add [bx+si],al
000036F2  0000              add [bx+si],al
000036F4  0000              add [bx+si],al
000036F6  0000              add [bx+si],al
000036F8  0000              add [bx+si],al
000036FA  0000              add [bx+si],al
000036FC  0000              add [bx+si],al
000036FE  0000              add [bx+si],al
00003700  0000              add [bx+si],al
00003702  0000              add [bx+si],al
00003704  0000              add [bx+si],al
00003706  0000              add [bx+si],al
00003708  0000              add [bx+si],al
0000370A  0000              add [bx+si],al
0000370C  0000              add [bx+si],al
0000370E  0000              add [bx+si],al
00003710  0000              add [bx+si],al
00003712  0000              add [bx+si],al
00003714  0000              add [bx+si],al
00003716  0000              add [bx+si],al
00003718  0000              add [bx+si],al
0000371A  0000              add [bx+si],al
0000371C  0000              add [bx+si],al
0000371E  0000              add [bx+si],al
00003720  0000              add [bx+si],al
00003722  0000              add [bx+si],al
00003724  0000              add [bx+si],al
00003726  0000              add [bx+si],al
00003728  0000              add [bx+si],al
0000372A  0000              add [bx+si],al
0000372C  0000              add [bx+si],al
0000372E  0000              add [bx+si],al
00003730  0000              add [bx+si],al
00003732  0000              add [bx+si],al
00003734  0000              add [bx+si],al
00003736  0000              add [bx+si],al
00003738  0000              add [bx+si],al
0000373A  0000              add [bx+si],al
0000373C  0000              add [bx+si],al
0000373E  0000              add [bx+si],al
00003740  0000              add [bx+si],al
00003742  0000              add [bx+si],al
00003744  0000              add [bx+si],al
00003746  0000              add [bx+si],al
00003748  0000              add [bx+si],al
0000374A  0000              add [bx+si],al
0000374C  0000              add [bx+si],al
0000374E  0000              add [bx+si],al
00003750  0000              add [bx+si],al
00003752  0000              add [bx+si],al
00003754  0000              add [bx+si],al
00003756  0000              add [bx+si],al
00003758  0000              add [bx+si],al
0000375A  0000              add [bx+si],al
0000375C  0000              add [bx+si],al
0000375E  0000              add [bx+si],al
00003760  0000              add [bx+si],al
00003762  0000              add [bx+si],al
00003764  0000              add [bx+si],al
00003766  0000              add [bx+si],al
00003768  0000              add [bx+si],al
0000376A  0000              add [bx+si],al
0000376C  0000              add [bx+si],al
0000376E  0000              add [bx+si],al
00003770  0000              add [bx+si],al
00003772  0000              add [bx+si],al
00003774  0000              add [bx+si],al
00003776  0000              add [bx+si],al
00003778  0000              add [bx+si],al
0000377A  0000              add [bx+si],al
0000377C  0000              add [bx+si],al
0000377E  0000              add [bx+si],al
00003780  0000              add [bx+si],al
00003782  0000              add [bx+si],al
00003784  0000              add [bx+si],al
00003786  0000              add [bx+si],al
00003788  0000              add [bx+si],al
0000378A  0000              add [bx+si],al
0000378C  0000              add [bx+si],al
0000378E  0000              add [bx+si],al
00003790  0000              add [bx+si],al
00003792  0000              add [bx+si],al
00003794  0000              add [bx+si],al
00003796  0000              add [bx+si],al
00003798  0000              add [bx+si],al
0000379A  0000              add [bx+si],al
0000379C  0000              add [bx+si],al
0000379E  0000              add [bx+si],al
000037A0  0000              add [bx+si],al
000037A2  0000              add [bx+si],al
000037A4  0000              add [bx+si],al
000037A6  0000              add [bx+si],al
000037A8  0000              add [bx+si],al
000037AA  0000              add [bx+si],al
000037AC  0000              add [bx+si],al
000037AE  0000              add [bx+si],al
000037B0  0000              add [bx+si],al
000037B2  0000              add [bx+si],al
000037B4  0000              add [bx+si],al
000037B6  0000              add [bx+si],al
000037B8  0000              add [bx+si],al
000037BA  0000              add [bx+si],al
000037BC  0000              add [bx+si],al
000037BE  0000              add [bx+si],al
000037C0  0000              add [bx+si],al
000037C2  0000              add [bx+si],al
000037C4  0000              add [bx+si],al
000037C6  0000              add [bx+si],al
000037C8  0000              add [bx+si],al
000037CA  0000              add [bx+si],al
000037CC  0000              add [bx+si],al
000037CE  0000              add [bx+si],al
000037D0  0000              add [bx+si],al
000037D2  0000              add [bx+si],al
000037D4  0000              add [bx+si],al
000037D6  0000              add [bx+si],al
000037D8  0000              add [bx+si],al
000037DA  0000              add [bx+si],al
000037DC  0000              add [bx+si],al
000037DE  0000              add [bx+si],al
000037E0  0000              add [bx+si],al
000037E2  0000              add [bx+si],al
000037E4  0000              add [bx+si],al
000037E6  0000              add [bx+si],al
000037E8  0000              add [bx+si],al
000037EA  0000              add [bx+si],al
000037EC  0000              add [bx+si],al
000037EE  0000              add [bx+si],al
000037F0  0000              add [bx+si],al
000037F2  0000              add [bx+si],al
000037F4  0000              add [bx+si],al
000037F6  0000              add [bx+si],al
000037F8  0000              add [bx+si],al
000037FA  0000              add [bx+si],al
000037FC  0000              add [bx+si],al
000037FE  0000              add [bx+si],al
00003800  0000              add [bx+si],al
00003802  0000              add [bx+si],al
00003804  0000              add [bx+si],al
00003806  0000              add [bx+si],al
00003808  0000              add [bx+si],al
0000380A  0000              add [bx+si],al
0000380C  0000              add [bx+si],al
0000380E  0000              add [bx+si],al
00003810  0000              add [bx+si],al
00003812  0000              add [bx+si],al
00003814  0000              add [bx+si],al
00003816  0000              add [bx+si],al
00003818  0000              add [bx+si],al
0000381A  0000              add [bx+si],al
0000381C  0000              add [bx+si],al
0000381E  0000              add [bx+si],al
00003820  0000              add [bx+si],al
00003822  0000              add [bx+si],al
00003824  0000              add [bx+si],al
00003826  0000              add [bx+si],al
00003828  0000              add [bx+si],al
0000382A  0000              add [bx+si],al
0000382C  0000              add [bx+si],al
0000382E  0000              add [bx+si],al
00003830  0000              add [bx+si],al
00003832  0000              add [bx+si],al
00003834  0000              add [bx+si],al
00003836  0000              add [bx+si],al
00003838  0000              add [bx+si],al
0000383A  0000              add [bx+si],al
0000383C  0000              add [bx+si],al
0000383E  0000              add [bx+si],al
00003840  0000              add [bx+si],al
00003842  0000              add [bx+si],al
00003844  0000              add [bx+si],al
00003846  0000              add [bx+si],al
00003848  0000              add [bx+si],al
0000384A  0000              add [bx+si],al
0000384C  0000              add [bx+si],al
0000384E  0000              add [bx+si],al
00003850  0000              add [bx+si],al
00003852  0000              add [bx+si],al
00003854  0000              add [bx+si],al
00003856  0000              add [bx+si],al
00003858  0000              add [bx+si],al
0000385A  0000              add [bx+si],al
0000385C  0000              add [bx+si],al
0000385E  0000              add [bx+si],al
00003860  0000              add [bx+si],al
00003862  0000              add [bx+si],al
00003864  0000              add [bx+si],al
00003866  0000              add [bx+si],al
00003868  0000              add [bx+si],al
0000386A  0000              add [bx+si],al
0000386C  0000              add [bx+si],al
0000386E  0000              add [bx+si],al
00003870  0000              add [bx+si],al
00003872  0000              add [bx+si],al
00003874  0000              add [bx+si],al
00003876  0000              add [bx+si],al
00003878  0000              add [bx+si],al
0000387A  0000              add [bx+si],al
0000387C  0000              add [bx+si],al
0000387E  0000              add [bx+si],al
00003880  0000              add [bx+si],al
00003882  0000              add [bx+si],al
00003884  0000              add [bx+si],al
00003886  0000              add [bx+si],al
00003888  0000              add [bx+si],al
0000388A  0000              add [bx+si],al
0000388C  0000              add [bx+si],al
0000388E  0000              add [bx+si],al
00003890  0000              add [bx+si],al
00003892  0000              add [bx+si],al
00003894  0000              add [bx+si],al
00003896  0000              add [bx+si],al
00003898  0000              add [bx+si],al
0000389A  0000              add [bx+si],al
0000389C  0000              add [bx+si],al
0000389E  0000              add [bx+si],al
000038A0  0000              add [bx+si],al
000038A2  0000              add [bx+si],al
000038A4  0000              add [bx+si],al
000038A6  0000              add [bx+si],al
000038A8  0000              add [bx+si],al
000038AA  0000              add [bx+si],al
000038AC  0000              add [bx+si],al
000038AE  0000              add [bx+si],al
000038B0  0000              add [bx+si],al
000038B2  0000              add [bx+si],al
000038B4  0000              add [bx+si],al
000038B6  0000              add [bx+si],al
000038B8  0000              add [bx+si],al
000038BA  0000              add [bx+si],al
000038BC  0000              add [bx+si],al
000038BE  0000              add [bx+si],al
000038C0  0000              add [bx+si],al
000038C2  0000              add [bx+si],al
000038C4  0000              add [bx+si],al
000038C6  0000              add [bx+si],al
000038C8  0000              add [bx+si],al
000038CA  0000              add [bx+si],al
000038CC  0000              add [bx+si],al
000038CE  0000              add [bx+si],al
000038D0  0000              add [bx+si],al
000038D2  0000              add [bx+si],al
000038D4  0000              add [bx+si],al
000038D6  0000              add [bx+si],al
000038D8  0000              add [bx+si],al
000038DA  0000              add [bx+si],al
000038DC  0000              add [bx+si],al
000038DE  0000              add [bx+si],al
000038E0  0000              add [bx+si],al
000038E2  0000              add [bx+si],al
000038E4  0000              add [bx+si],al
000038E6  0000              add [bx+si],al
000038E8  0000              add [bx+si],al
000038EA  0000              add [bx+si],al
000038EC  0000              add [bx+si],al
000038EE  0000              add [bx+si],al
000038F0  0000              add [bx+si],al
000038F2  0000              add [bx+si],al
000038F4  0000              add [bx+si],al
000038F6  0000              add [bx+si],al
000038F8  0000              add [bx+si],al
000038FA  0000              add [bx+si],al
000038FC  0000              add [bx+si],al
000038FE  0000              add [bx+si],al
00003900  0000              add [bx+si],al
00003902  0000              add [bx+si],al
00003904  0000              add [bx+si],al
00003906  0000              add [bx+si],al
00003908  0000              add [bx+si],al
0000390A  0000              add [bx+si],al
0000390C  0000              add [bx+si],al
0000390E  0000              add [bx+si],al
00003910  0000              add [bx+si],al
00003912  0000              add [bx+si],al
00003914  0000              add [bx+si],al
00003916  0000              add [bx+si],al
00003918  0000              add [bx+si],al
0000391A  0000              add [bx+si],al
0000391C  0000              add [bx+si],al
0000391E  0000              add [bx+si],al
00003920  0000              add [bx+si],al
00003922  0000              add [bx+si],al
00003924  0000              add [bx+si],al
00003926  0000              add [bx+si],al
00003928  0000              add [bx+si],al
0000392A  0000              add [bx+si],al
0000392C  0000              add [bx+si],al
0000392E  0000              add [bx+si],al
00003930  0000              add [bx+si],al
00003932  0000              add [bx+si],al
00003934  0000              add [bx+si],al
00003936  0000              add [bx+si],al
00003938  0000              add [bx+si],al
0000393A  0000              add [bx+si],al
0000393C  0000              add [bx+si],al
0000393E  0000              add [bx+si],al
00003940  0000              add [bx+si],al
00003942  0000              add [bx+si],al
00003944  0000              add [bx+si],al
00003946  0000              add [bx+si],al
00003948  0000              add [bx+si],al
0000394A  0000              add [bx+si],al
0000394C  0000              add [bx+si],al
0000394E  0000              add [bx+si],al
00003950  0000              add [bx+si],al
00003952  0000              add [bx+si],al
00003954  0000              add [bx+si],al
00003956  0000              add [bx+si],al
00003958  0000              add [bx+si],al
0000395A  0000              add [bx+si],al
0000395C  0000              add [bx+si],al
0000395E  0000              add [bx+si],al
00003960  0000              add [bx+si],al
00003962  0000              add [bx+si],al
00003964  0000              add [bx+si],al
00003966  0000              add [bx+si],al
00003968  0000              add [bx+si],al
0000396A  0000              add [bx+si],al
0000396C  0000              add [bx+si],al
0000396E  0000              add [bx+si],al
00003970  0000              add [bx+si],al
00003972  0000              add [bx+si],al
00003974  0000              add [bx+si],al
00003976  0000              add [bx+si],al
00003978  0000              add [bx+si],al
0000397A  0000              add [bx+si],al
0000397C  0000              add [bx+si],al
0000397E  0000              add [bx+si],al
00003980  0000              add [bx+si],al
00003982  0000              add [bx+si],al
00003984  0000              add [bx+si],al
00003986  0000              add [bx+si],al
00003988  0000              add [bx+si],al
0000398A  0000              add [bx+si],al
0000398C  0000              add [bx+si],al
0000398E  0000              add [bx+si],al
00003990  0000              add [bx+si],al
00003992  0000              add [bx+si],al
00003994  0000              add [bx+si],al
00003996  0000              add [bx+si],al
00003998  0000              add [bx+si],al
0000399A  0000              add [bx+si],al
0000399C  0000              add [bx+si],al
0000399E  0000              add [bx+si],al
000039A0  0000              add [bx+si],al
000039A2  0000              add [bx+si],al
000039A4  0000              add [bx+si],al
000039A6  0000              add [bx+si],al
000039A8  0000              add [bx+si],al
000039AA  0000              add [bx+si],al
000039AC  0000              add [bx+si],al
000039AE  0000              add [bx+si],al
000039B0  0000              add [bx+si],al
000039B2  0000              add [bx+si],al
000039B4  0000              add [bx+si],al
000039B6  0000              add [bx+si],al
000039B8  0000              add [bx+si],al
000039BA  0000              add [bx+si],al
000039BC  0000              add [bx+si],al
000039BE  0000              add [bx+si],al
000039C0  0000              add [bx+si],al
000039C2  0000              add [bx+si],al
000039C4  0000              add [bx+si],al
000039C6  0000              add [bx+si],al
000039C8  0000              add [bx+si],al
000039CA  0000              add [bx+si],al
000039CC  0000              add [bx+si],al
000039CE  0000              add [bx+si],al
000039D0  0000              add [bx+si],al
000039D2  0000              add [bx+si],al
000039D4  0000              add [bx+si],al
000039D6  0000              add [bx+si],al
000039D8  0000              add [bx+si],al
000039DA  0000              add [bx+si],al
000039DC  0000              add [bx+si],al
000039DE  0000              add [bx+si],al
000039E0  0000              add [bx+si],al
000039E2  0000              add [bx+si],al
000039E4  0000              add [bx+si],al
000039E6  0000              add [bx+si],al
000039E8  0000              add [bx+si],al
000039EA  0000              add [bx+si],al
000039EC  0000              add [bx+si],al
000039EE  0000              add [bx+si],al
000039F0  0000              add [bx+si],al
000039F2  0000              add [bx+si],al
000039F4  0000              add [bx+si],al
000039F6  0000              add [bx+si],al
000039F8  0000              add [bx+si],al
000039FA  0000              add [bx+si],al
000039FC  0000              add [bx+si],al
000039FE  0000              add [bx+si],al
00003A00  0000              add [bx+si],al
00003A02  0000              add [bx+si],al
00003A04  0000              add [bx+si],al
00003A06  0000              add [bx+si],al
00003A08  0000              add [bx+si],al
00003A0A  0000              add [bx+si],al
00003A0C  0000              add [bx+si],al
00003A0E  0000              add [bx+si],al
00003A10  0000              add [bx+si],al
00003A12  0000              add [bx+si],al
00003A14  0000              add [bx+si],al
00003A16  0000              add [bx+si],al
00003A18  0000              add [bx+si],al
00003A1A  0000              add [bx+si],al
00003A1C  0000              add [bx+si],al
00003A1E  0000              add [bx+si],al
00003A20  0000              add [bx+si],al
00003A22  0000              add [bx+si],al
00003A24  0000              add [bx+si],al
00003A26  0000              add [bx+si],al
00003A28  0000              add [bx+si],al
00003A2A  0000              add [bx+si],al
00003A2C  0000              add [bx+si],al
00003A2E  0000              add [bx+si],al
00003A30  0000              add [bx+si],al
00003A32  0000              add [bx+si],al
00003A34  0000              add [bx+si],al
00003A36  0000              add [bx+si],al
00003A38  0000              add [bx+si],al
00003A3A  0000              add [bx+si],al
00003A3C  0000              add [bx+si],al
00003A3E  0000              add [bx+si],al
00003A40  0000              add [bx+si],al
00003A42  0000              add [bx+si],al
00003A44  0000              add [bx+si],al
00003A46  0000              add [bx+si],al
00003A48  0000              add [bx+si],al
00003A4A  0000              add [bx+si],al
00003A4C  0000              add [bx+si],al
00003A4E  0000              add [bx+si],al
00003A50  0000              add [bx+si],al
00003A52  0000              add [bx+si],al
00003A54  0000              add [bx+si],al
00003A56  0000              add [bx+si],al
00003A58  0000              add [bx+si],al
00003A5A  0000              add [bx+si],al
00003A5C  0000              add [bx+si],al
00003A5E  0000              add [bx+si],al
00003A60  0000              add [bx+si],al
00003A62  0000              add [bx+si],al
00003A64  0000              add [bx+si],al
00003A66  0000              add [bx+si],al
00003A68  0000              add [bx+si],al
00003A6A  0000              add [bx+si],al
00003A6C  0000              add [bx+si],al
00003A6E  0000              add [bx+si],al
00003A70  0000              add [bx+si],al
00003A72  0000              add [bx+si],al
00003A74  0000              add [bx+si],al
00003A76  0000              add [bx+si],al
00003A78  0000              add [bx+si],al
00003A7A  0000              add [bx+si],al
00003A7C  0000              add [bx+si],al
00003A7E  0000              add [bx+si],al
00003A80  0000              add [bx+si],al
00003A82  0000              add [bx+si],al
00003A84  0000              add [bx+si],al
00003A86  0000              add [bx+si],al
00003A88  0000              add [bx+si],al
00003A8A  0000              add [bx+si],al
00003A8C  0000              add [bx+si],al
00003A8E  0000              add [bx+si],al
00003A90  0000              add [bx+si],al
00003A92  0000              add [bx+si],al
00003A94  0000              add [bx+si],al
00003A96  0000              add [bx+si],al
00003A98  0000              add [bx+si],al
00003A9A  0000              add [bx+si],al
00003A9C  0000              add [bx+si],al
00003A9E  0000              add [bx+si],al
00003AA0  0000              add [bx+si],al
00003AA2  0000              add [bx+si],al
00003AA4  0000              add [bx+si],al
00003AA6  0000              add [bx+si],al
00003AA8  0000              add [bx+si],al
00003AAA  0000              add [bx+si],al
00003AAC  0000              add [bx+si],al
00003AAE  0000              add [bx+si],al
00003AB0  0000              add [bx+si],al
00003AB2  0000              add [bx+si],al
00003AB4  0000              add [bx+si],al
00003AB6  0000              add [bx+si],al
00003AB8  0000              add [bx+si],al
00003ABA  0000              add [bx+si],al
00003ABC  0000              add [bx+si],al
00003ABE  0000              add [bx+si],al
00003AC0  0000              add [bx+si],al
00003AC2  0000              add [bx+si],al
00003AC4  0000              add [bx+si],al
00003AC6  0000              add [bx+si],al
00003AC8  0000              add [bx+si],al
00003ACA  0000              add [bx+si],al
00003ACC  0000              add [bx+si],al
00003ACE  0000              add [bx+si],al
00003AD0  0000              add [bx+si],al
00003AD2  0000              add [bx+si],al
00003AD4  0000              add [bx+si],al
00003AD6  0000              add [bx+si],al
00003AD8  0000              add [bx+si],al
00003ADA  0000              add [bx+si],al
00003ADC  0000              add [bx+si],al
00003ADE  0000              add [bx+si],al
00003AE0  0000              add [bx+si],al
00003AE2  0000              add [bx+si],al
00003AE4  0000              add [bx+si],al
00003AE6  0000              add [bx+si],al
00003AE8  0000              add [bx+si],al
00003AEA  0000              add [bx+si],al
00003AEC  0000              add [bx+si],al
00003AEE  0000              add [bx+si],al
00003AF0  0000              add [bx+si],al
00003AF2  0000              add [bx+si],al
00003AF4  0000              add [bx+si],al
00003AF6  0000              add [bx+si],al
00003AF8  0000              add [bx+si],al
00003AFA  0000              add [bx+si],al
00003AFC  0000              add [bx+si],al
00003AFE  0000              add [bx+si],al
00003B00  0000              add [bx+si],al
00003B02  0000              add [bx+si],al
00003B04  0000              add [bx+si],al
00003B06  0000              add [bx+si],al
00003B08  0000              add [bx+si],al
00003B0A  0000              add [bx+si],al
00003B0C  0000              add [bx+si],al
00003B0E  0000              add [bx+si],al
00003B10  0000              add [bx+si],al
00003B12  0000              add [bx+si],al
00003B14  0000              add [bx+si],al
00003B16  0000              add [bx+si],al
00003B18  0000              add [bx+si],al
00003B1A  0000              add [bx+si],al
00003B1C  0000              add [bx+si],al
00003B1E  0000              add [bx+si],al
00003B20  0000              add [bx+si],al
00003B22  0000              add [bx+si],al
00003B24  0000              add [bx+si],al
00003B26  0000              add [bx+si],al
00003B28  0000              add [bx+si],al
00003B2A  0000              add [bx+si],al
00003B2C  0000              add [bx+si],al
00003B2E  0000              add [bx+si],al
00003B30  0000              add [bx+si],al
00003B32  0000              add [bx+si],al
00003B34  0000              add [bx+si],al
00003B36  0000              add [bx+si],al
00003B38  0000              add [bx+si],al
00003B3A  0000              add [bx+si],al
00003B3C  0000              add [bx+si],al
00003B3E  0000              add [bx+si],al
00003B40  0000              add [bx+si],al
00003B42  0000              add [bx+si],al
00003B44  0000              add [bx+si],al
00003B46  0000              add [bx+si],al
00003B48  0000              add [bx+si],al
00003B4A  0000              add [bx+si],al
00003B4C  0000              add [bx+si],al
00003B4E  0000              add [bx+si],al
00003B50  0000              add [bx+si],al
00003B52  0000              add [bx+si],al
00003B54  0000              add [bx+si],al
00003B56  0000              add [bx+si],al
00003B58  0000              add [bx+si],al
00003B5A  0000              add [bx+si],al
00003B5C  0000              add [bx+si],al
00003B5E  0000              add [bx+si],al
00003B60  0000              add [bx+si],al
00003B62  0000              add [bx+si],al
00003B64  0000              add [bx+si],al
00003B66  0000              add [bx+si],al
00003B68  0000              add [bx+si],al
00003B6A  0000              add [bx+si],al
00003B6C  0000              add [bx+si],al
00003B6E  0000              add [bx+si],al
00003B70  0000              add [bx+si],al
00003B72  0000              add [bx+si],al
00003B74  0000              add [bx+si],al
00003B76  0000              add [bx+si],al
00003B78  0000              add [bx+si],al
00003B7A  0000              add [bx+si],al
00003B7C  0000              add [bx+si],al
00003B7E  0000              add [bx+si],al
00003B80  0000              add [bx+si],al
00003B82  0000              add [bx+si],al
00003B84  0000              add [bx+si],al
00003B86  0000              add [bx+si],al
00003B88  0000              add [bx+si],al
00003B8A  0000              add [bx+si],al
00003B8C  0000              add [bx+si],al
00003B8E  0000              add [bx+si],al
00003B90  0000              add [bx+si],al
00003B92  0000              add [bx+si],al
00003B94  0000              add [bx+si],al
00003B96  0000              add [bx+si],al
00003B98  0000              add [bx+si],al
00003B9A  0000              add [bx+si],al
00003B9C  0000              add [bx+si],al
00003B9E  0000              add [bx+si],al
00003BA0  0000              add [bx+si],al
00003BA2  0000              add [bx+si],al
00003BA4  0000              add [bx+si],al
00003BA6  0000              add [bx+si],al
00003BA8  0000              add [bx+si],al
00003BAA  0000              add [bx+si],al
00003BAC  0000              add [bx+si],al
00003BAE  0000              add [bx+si],al
00003BB0  0000              add [bx+si],al
00003BB2  0000              add [bx+si],al
00003BB4  0000              add [bx+si],al
00003BB6  0000              add [bx+si],al
00003BB8  0000              add [bx+si],al
00003BBA  0000              add [bx+si],al
00003BBC  0000              add [bx+si],al
00003BBE  0000              add [bx+si],al
00003BC0  0000              add [bx+si],al
00003BC2  0000              add [bx+si],al
00003BC4  0000              add [bx+si],al
00003BC6  0000              add [bx+si],al
00003BC8  0000              add [bx+si],al
00003BCA  0000              add [bx+si],al
00003BCC  0000              add [bx+si],al
00003BCE  0000              add [bx+si],al
00003BD0  0000              add [bx+si],al
00003BD2  0000              add [bx+si],al
00003BD4  0000              add [bx+si],al
00003BD6  0000              add [bx+si],al
00003BD8  0000              add [bx+si],al
00003BDA  0000              add [bx+si],al
00003BDC  0000              add [bx+si],al
00003BDE  0000              add [bx+si],al
00003BE0  0000              add [bx+si],al
00003BE2  0000              add [bx+si],al
00003BE4  0000              add [bx+si],al
00003BE6  0000              add [bx+si],al
00003BE8  0000              add [bx+si],al
00003BEA  0000              add [bx+si],al
00003BEC  0000              add [bx+si],al
00003BEE  0000              add [bx+si],al
00003BF0  0000              add [bx+si],al
00003BF2  0000              add [bx+si],al
00003BF4  0000              add [bx+si],al
00003BF6  0000              add [bx+si],al
00003BF8  0000              add [bx+si],al
00003BFA  0000              add [bx+si],al
00003BFC  0000              add [bx+si],al
00003BFE  0000              add [bx+si],al
00003C00  0000              add [bx+si],al
00003C02  0000              add [bx+si],al
00003C04  0000              add [bx+si],al
00003C06  0000              add [bx+si],al
00003C08  0000              add [bx+si],al
00003C0A  0000              add [bx+si],al
00003C0C  0000              add [bx+si],al
00003C0E  0000              add [bx+si],al
00003C10  0000              add [bx+si],al
00003C12  0000              add [bx+si],al
00003C14  0000              add [bx+si],al
00003C16  0000              add [bx+si],al
00003C18  0000              add [bx+si],al
00003C1A  0000              add [bx+si],al
00003C1C  0000              add [bx+si],al
00003C1E  0000              add [bx+si],al
00003C20  0000              add [bx+si],al
00003C22  0000              add [bx+si],al
00003C24  0000              add [bx+si],al
00003C26  0000              add [bx+si],al
00003C28  0000              add [bx+si],al
00003C2A  0000              add [bx+si],al
00003C2C  0000              add [bx+si],al
00003C2E  0000              add [bx+si],al
00003C30  0000              add [bx+si],al
00003C32  0000              add [bx+si],al
00003C34  0000              add [bx+si],al
00003C36  0000              add [bx+si],al
00003C38  0000              add [bx+si],al
00003C3A  0000              add [bx+si],al
00003C3C  0000              add [bx+si],al
00003C3E  0000              add [bx+si],al
00003C40  0000              add [bx+si],al
00003C42  0000              add [bx+si],al
00003C44  0000              add [bx+si],al
00003C46  0000              add [bx+si],al
00003C48  0000              add [bx+si],al
00003C4A  0000              add [bx+si],al
00003C4C  0000              add [bx+si],al
00003C4E  0000              add [bx+si],al
00003C50  0000              add [bx+si],al
00003C52  0000              add [bx+si],al
00003C54  0000              add [bx+si],al
00003C56  0000              add [bx+si],al
00003C58  0000              add [bx+si],al
00003C5A  0000              add [bx+si],al
00003C5C  0000              add [bx+si],al
00003C5E  0000              add [bx+si],al
00003C60  0000              add [bx+si],al
00003C62  0000              add [bx+si],al
00003C64  0000              add [bx+si],al
00003C66  0000              add [bx+si],al
00003C68  0000              add [bx+si],al
00003C6A  0000              add [bx+si],al
00003C6C  0000              add [bx+si],al
00003C6E  0000              add [bx+si],al
00003C70  0000              add [bx+si],al
00003C72  0000              add [bx+si],al
00003C74  0000              add [bx+si],al
00003C76  0000              add [bx+si],al
00003C78  0000              add [bx+si],al
00003C7A  0000              add [bx+si],al
00003C7C  0000              add [bx+si],al
00003C7E  0000              add [bx+si],al
00003C80  0000              add [bx+si],al
00003C82  0000              add [bx+si],al
00003C84  0000              add [bx+si],al
00003C86  0000              add [bx+si],al
00003C88  0000              add [bx+si],al
00003C8A  0000              add [bx+si],al
00003C8C  0000              add [bx+si],al
00003C8E  0000              add [bx+si],al
00003C90  0000              add [bx+si],al
00003C92  0000              add [bx+si],al
00003C94  0000              add [bx+si],al
00003C96  0000              add [bx+si],al
00003C98  0000              add [bx+si],al
00003C9A  0000              add [bx+si],al
00003C9C  0000              add [bx+si],al
00003C9E  0000              add [bx+si],al
00003CA0  0000              add [bx+si],al
00003CA2  0000              add [bx+si],al
00003CA4  0000              add [bx+si],al
00003CA6  0000              add [bx+si],al
00003CA8  0000              add [bx+si],al
00003CAA  0000              add [bx+si],al
00003CAC  0000              add [bx+si],al
00003CAE  0000              add [bx+si],al
00003CB0  0000              add [bx+si],al
00003CB2  0000              add [bx+si],al
00003CB4  0000              add [bx+si],al
00003CB6  0000              add [bx+si],al
00003CB8  0000              add [bx+si],al
00003CBA  0000              add [bx+si],al
00003CBC  0000              add [bx+si],al
00003CBE  0000              add [bx+si],al
00003CC0  0000              add [bx+si],al
00003CC2  0000              add [bx+si],al
00003CC4  0000              add [bx+si],al
00003CC6  0000              add [bx+si],al
00003CC8  0000              add [bx+si],al
00003CCA  0000              add [bx+si],al
00003CCC  0000              add [bx+si],al
00003CCE  0000              add [bx+si],al
00003CD0  0000              add [bx+si],al
00003CD2  0000              add [bx+si],al
00003CD4  0000              add [bx+si],al
00003CD6  0000              add [bx+si],al
00003CD8  0000              add [bx+si],al
00003CDA  0000              add [bx+si],al
00003CDC  0000              add [bx+si],al
00003CDE  0000              add [bx+si],al
00003CE0  0000              add [bx+si],al
00003CE2  0000              add [bx+si],al
00003CE4  0000              add [bx+si],al
00003CE6  0000              add [bx+si],al
00003CE8  0000              add [bx+si],al
00003CEA  0000              add [bx+si],al
00003CEC  0000              add [bx+si],al
00003CEE  0000              add [bx+si],al
00003CF0  0000              add [bx+si],al
00003CF2  0000              add [bx+si],al
00003CF4  0000              add [bx+si],al
00003CF6  0000              add [bx+si],al
00003CF8  0000              add [bx+si],al
00003CFA  0000              add [bx+si],al
00003CFC  0000              add [bx+si],al
00003CFE  0000              add [bx+si],al
00003D00  0000              add [bx+si],al
00003D02  0000              add [bx+si],al
00003D04  0000              add [bx+si],al
00003D06  0000              add [bx+si],al
00003D08  0000              add [bx+si],al
00003D0A  0000              add [bx+si],al
00003D0C  0000              add [bx+si],al
00003D0E  0000              add [bx+si],al
00003D10  0000              add [bx+si],al
00003D12  0000              add [bx+si],al
00003D14  0000              add [bx+si],al
00003D16  0000              add [bx+si],al
00003D18  0000              add [bx+si],al
00003D1A  0000              add [bx+si],al
00003D1C  0000              add [bx+si],al
00003D1E  0000              add [bx+si],al
00003D20  0000              add [bx+si],al
00003D22  0000              add [bx+si],al
00003D24  0000              add [bx+si],al
00003D26  0000              add [bx+si],al
00003D28  0000              add [bx+si],al
00003D2A  0000              add [bx+si],al
00003D2C  0000              add [bx+si],al
00003D2E  0000              add [bx+si],al
00003D30  0000              add [bx+si],al
00003D32  0000              add [bx+si],al
00003D34  0000              add [bx+si],al
00003D36  0000              add [bx+si],al
00003D38  0000              add [bx+si],al
00003D3A  0000              add [bx+si],al
00003D3C  0000              add [bx+si],al
00003D3E  0000              add [bx+si],al
00003D40  0000              add [bx+si],al
00003D42  0000              add [bx+si],al
00003D44  0000              add [bx+si],al
00003D46  0000              add [bx+si],al
00003D48  0000              add [bx+si],al
00003D4A  0000              add [bx+si],al
00003D4C  0000              add [bx+si],al
00003D4E  0000              add [bx+si],al
00003D50  0000              add [bx+si],al
00003D52  0000              add [bx+si],al
00003D54  0000              add [bx+si],al
00003D56  0000              add [bx+si],al
00003D58  0000              add [bx+si],al
00003D5A  0000              add [bx+si],al
00003D5C  0000              add [bx+si],al
00003D5E  0000              add [bx+si],al
00003D60  0000              add [bx+si],al
00003D62  0000              add [bx+si],al
00003D64  0000              add [bx+si],al
00003D66  0000              add [bx+si],al
00003D68  0000              add [bx+si],al
00003D6A  0000              add [bx+si],al
00003D6C  0000              add [bx+si],al
00003D6E  0000              add [bx+si],al
00003D70  0000              add [bx+si],al
00003D72  0000              add [bx+si],al
00003D74  0000              add [bx+si],al
00003D76  0000              add [bx+si],al
00003D78  0000              add [bx+si],al
00003D7A  0000              add [bx+si],al
00003D7C  0000              add [bx+si],al
00003D7E  0000              add [bx+si],al
00003D80  0000              add [bx+si],al
00003D82  0000              add [bx+si],al
00003D84  0000              add [bx+si],al
00003D86  0000              add [bx+si],al
00003D88  0000              add [bx+si],al
00003D8A  0000              add [bx+si],al
00003D8C  0000              add [bx+si],al
00003D8E  0000              add [bx+si],al
00003D90  0000              add [bx+si],al
00003D92  0000              add [bx+si],al
00003D94  0000              add [bx+si],al
00003D96  0000              add [bx+si],al
00003D98  0000              add [bx+si],al
00003D9A  0000              add [bx+si],al
00003D9C  0000              add [bx+si],al
00003D9E  0000              add [bx+si],al
00003DA0  0000              add [bx+si],al
00003DA2  0000              add [bx+si],al
00003DA4  0000              add [bx+si],al
00003DA6  0000              add [bx+si],al
00003DA8  0000              add [bx+si],al
00003DAA  0000              add [bx+si],al
00003DAC  0000              add [bx+si],al
00003DAE  0000              add [bx+si],al
00003DB0  0000              add [bx+si],al
00003DB2  0000              add [bx+si],al
00003DB4  0000              add [bx+si],al
00003DB6  0000              add [bx+si],al
00003DB8  0000              add [bx+si],al
00003DBA  0000              add [bx+si],al
00003DBC  0000              add [bx+si],al
00003DBE  0000              add [bx+si],al
00003DC0  0000              add [bx+si],al
00003DC2  0000              add [bx+si],al
00003DC4  0000              add [bx+si],al
00003DC6  0000              add [bx+si],al
00003DC8  0000              add [bx+si],al
00003DCA  0000              add [bx+si],al
00003DCC  0000              add [bx+si],al
00003DCE  0000              add [bx+si],al
00003DD0  0000              add [bx+si],al
00003DD2  0000              add [bx+si],al
00003DD4  0000              add [bx+si],al
00003DD6  0000              add [bx+si],al
00003DD8  0000              add [bx+si],al
00003DDA  0000              add [bx+si],al
00003DDC  0000              add [bx+si],al
00003DDE  0000              add [bx+si],al
00003DE0  0000              add [bx+si],al
00003DE2  0000              add [bx+si],al
00003DE4  0000              add [bx+si],al
00003DE6  0000              add [bx+si],al
00003DE8  0000              add [bx+si],al
00003DEA  0000              add [bx+si],al
00003DEC  0000              add [bx+si],al
00003DEE  0000              add [bx+si],al
00003DF0  0000              add [bx+si],al
00003DF2  0000              add [bx+si],al
00003DF4  0000              add [bx+si],al
00003DF6  0000              add [bx+si],al
00003DF8  0000              add [bx+si],al
00003DFA  0000              add [bx+si],al
00003DFC  0000              add [bx+si],al
00003DFE  0000              add [bx+si],al
00003E00  0000              add [bx+si],al
00003E02  0000              add [bx+si],al
00003E04  0000              add [bx+si],al
00003E06  0000              add [bx+si],al
00003E08  0000              add [bx+si],al
00003E0A  0000              add [bx+si],al
00003E0C  0000              add [bx+si],al
00003E0E  0000              add [bx+si],al
00003E10  0000              add [bx+si],al
00003E12  0000              add [bx+si],al
00003E14  0000              add [bx+si],al
00003E16  0000              add [bx+si],al
00003E18  0000              add [bx+si],al
00003E1A  0000              add [bx+si],al
00003E1C  0000              add [bx+si],al
00003E1E  0000              add [bx+si],al
00003E20  0000              add [bx+si],al
00003E22  0000              add [bx+si],al
00003E24  0000              add [bx+si],al
00003E26  0000              add [bx+si],al
00003E28  0000              add [bx+si],al
00003E2A  0000              add [bx+si],al
00003E2C  0000              add [bx+si],al
00003E2E  0000              add [bx+si],al
00003E30  0000              add [bx+si],al
00003E32  0000              add [bx+si],al
00003E34  0000              add [bx+si],al
00003E36  0000              add [bx+si],al
00003E38  0000              add [bx+si],al
00003E3A  0000              add [bx+si],al
00003E3C  0000              add [bx+si],al
00003E3E  0000              add [bx+si],al
00003E40  0000              add [bx+si],al
00003E42  0000              add [bx+si],al
00003E44  0000              add [bx+si],al
00003E46  0000              add [bx+si],al
00003E48  0000              add [bx+si],al
00003E4A  0000              add [bx+si],al
00003E4C  0000              add [bx+si],al
00003E4E  0000              add [bx+si],al
00003E50  0000              add [bx+si],al
00003E52  0000              add [bx+si],al
00003E54  0000              add [bx+si],al
00003E56  0000              add [bx+si],al
00003E58  0000              add [bx+si],al
00003E5A  0000              add [bx+si],al
00003E5C  0000              add [bx+si],al
00003E5E  0000              add [bx+si],al
00003E60  0000              add [bx+si],al
00003E62  0000              add [bx+si],al
00003E64  0000              add [bx+si],al
00003E66  0000              add [bx+si],al
00003E68  0000              add [bx+si],al
00003E6A  0000              add [bx+si],al
00003E6C  0000              add [bx+si],al
00003E6E  0000              add [bx+si],al
00003E70  0000              add [bx+si],al
00003E72  0000              add [bx+si],al
00003E74  0000              add [bx+si],al
00003E76  0000              add [bx+si],al
00003E78  0000              add [bx+si],al
00003E7A  0000              add [bx+si],al
00003E7C  0000              add [bx+si],al
00003E7E  0000              add [bx+si],al
00003E80  0000              add [bx+si],al
00003E82  0000              add [bx+si],al
00003E84  0000              add [bx+si],al
00003E86  0000              add [bx+si],al
00003E88  0000              add [bx+si],al
00003E8A  0000              add [bx+si],al
00003E8C  0000              add [bx+si],al
00003E8E  0000              add [bx+si],al
00003E90  0000              add [bx+si],al
00003E92  0000              add [bx+si],al
00003E94  0000              add [bx+si],al
00003E96  0000              add [bx+si],al
00003E98  0000              add [bx+si],al
00003E9A  0000              add [bx+si],al
00003E9C  0000              add [bx+si],al
00003E9E  0000              add [bx+si],al
00003EA0  0000              add [bx+si],al
00003EA2  0000              add [bx+si],al
00003EA4  0000              add [bx+si],al
00003EA6  0000              add [bx+si],al
00003EA8  0000              add [bx+si],al
00003EAA  0000              add [bx+si],al
00003EAC  0000              add [bx+si],al
00003EAE  0000              add [bx+si],al
00003EB0  0000              add [bx+si],al
00003EB2  0000              add [bx+si],al
00003EB4  0000              add [bx+si],al
00003EB6  0000              add [bx+si],al
00003EB8  0000              add [bx+si],al
00003EBA  0000              add [bx+si],al
00003EBC  0000              add [bx+si],al
00003EBE  0000              add [bx+si],al
00003EC0  0000              add [bx+si],al
00003EC2  0000              add [bx+si],al
00003EC4  0000              add [bx+si],al
00003EC6  0000              add [bx+si],al
00003EC8  0000              add [bx+si],al
00003ECA  0000              add [bx+si],al
00003ECC  0000              add [bx+si],al
00003ECE  0000              add [bx+si],al
00003ED0  0000              add [bx+si],al
00003ED2  0000              add [bx+si],al
00003ED4  0000              add [bx+si],al
00003ED6  0000              add [bx+si],al
00003ED8  0000              add [bx+si],al
00003EDA  0000              add [bx+si],al
00003EDC  0000              add [bx+si],al
00003EDE  0000              add [bx+si],al
00003EE0  0000              add [bx+si],al
00003EE2  0000              add [bx+si],al
00003EE4  0000              add [bx+si],al
00003EE6  0000              add [bx+si],al
00003EE8  0000              add [bx+si],al
00003EEA  0000              add [bx+si],al
00003EEC  0000              add [bx+si],al
00003EEE  0000              add [bx+si],al
00003EF0  0000              add [bx+si],al
00003EF2  0000              add [bx+si],al
00003EF4  0000              add [bx+si],al
00003EF6  0000              add [bx+si],al
00003EF8  0000              add [bx+si],al
00003EFA  0000              add [bx+si],al
00003EFC  0000              add [bx+si],al
00003EFE  0000              add [bx+si],al
00003F00  0000              add [bx+si],al
00003F02  0000              add [bx+si],al
00003F04  0000              add [bx+si],al
00003F06  0000              add [bx+si],al
00003F08  0000              add [bx+si],al
00003F0A  0000              add [bx+si],al
00003F0C  0000              add [bx+si],al
00003F0E  0000              add [bx+si],al
00003F10  0000              add [bx+si],al
00003F12  0000              add [bx+si],al
00003F14  0000              add [bx+si],al
00003F16  0000              add [bx+si],al
00003F18  0000              add [bx+si],al
00003F1A  0000              add [bx+si],al
00003F1C  0000              add [bx+si],al
00003F1E  0000              add [bx+si],al
00003F20  0000              add [bx+si],al
00003F22  0000              add [bx+si],al
00003F24  0000              add [bx+si],al
00003F26  0000              add [bx+si],al
00003F28  0000              add [bx+si],al
00003F2A  0000              add [bx+si],al
00003F2C  0000              add [bx+si],al
00003F2E  0000              add [bx+si],al
00003F30  0000              add [bx+si],al
00003F32  0000              add [bx+si],al
00003F34  0000              add [bx+si],al
00003F36  0000              add [bx+si],al
00003F38  0000              add [bx+si],al
00003F3A  0000              add [bx+si],al
00003F3C  0000              add [bx+si],al
00003F3E  0000              add [bx+si],al
00003F40  0000              add [bx+si],al
00003F42  0000              add [bx+si],al
00003F44  0000              add [bx+si],al
00003F46  0000              add [bx+si],al
00003F48  0000              add [bx+si],al
00003F4A  0000              add [bx+si],al
00003F4C  0000              add [bx+si],al
00003F4E  0000              add [bx+si],al
00003F50  0000              add [bx+si],al
00003F52  0000              add [bx+si],al
00003F54  0000              add [bx+si],al
00003F56  0000              add [bx+si],al
00003F58  0000              add [bx+si],al
00003F5A  0000              add [bx+si],al
00003F5C  0000              add [bx+si],al
00003F5E  0000              add [bx+si],al
00003F60  0000              add [bx+si],al
00003F62  0000              add [bx+si],al
00003F64  0000              add [bx+si],al
00003F66  0000              add [bx+si],al
00003F68  0000              add [bx+si],al
00003F6A  0000              add [bx+si],al
00003F6C  0000              add [bx+si],al
00003F6E  0000              add [bx+si],al
00003F70  0000              add [bx+si],al
00003F72  0000              add [bx+si],al
00003F74  0000              add [bx+si],al
00003F76  0000              add [bx+si],al
00003F78  0000              add [bx+si],al
00003F7A  0000              add [bx+si],al
00003F7C  0000              add [bx+si],al
00003F7E  0000              add [bx+si],al
00003F80  0000              add [bx+si],al
00003F82  0000              add [bx+si],al
00003F84  0000              add [bx+si],al
00003F86  0000              add [bx+si],al
00003F88  0000              add [bx+si],al
00003F8A  0000              add [bx+si],al
00003F8C  0000              add [bx+si],al
00003F8E  0000              add [bx+si],al
00003F90  0000              add [bx+si],al
00003F92  0000              add [bx+si],al
00003F94  0000              add [bx+si],al
00003F96  0000              add [bx+si],al
00003F98  0000              add [bx+si],al
00003F9A  0000              add [bx+si],al
00003F9C  0000              add [bx+si],al
00003F9E  0000              add [bx+si],al
00003FA0  0000              add [bx+si],al
00003FA2  0000              add [bx+si],al
00003FA4  0000              add [bx+si],al
00003FA6  0000              add [bx+si],al
00003FA8  0000              add [bx+si],al
00003FAA  0000              add [bx+si],al
00003FAC  0000              add [bx+si],al
00003FAE  0000              add [bx+si],al
00003FB0  0000              add [bx+si],al
00003FB2  0000              add [bx+si],al
00003FB4  0000              add [bx+si],al
00003FB6  0000              add [bx+si],al
00003FB8  0000              add [bx+si],al
00003FBA  0000              add [bx+si],al
00003FBC  0000              add [bx+si],al
00003FBE  0000              add [bx+si],al
00003FC0  0000              add [bx+si],al
00003FC2  0000              add [bx+si],al
00003FC4  0000              add [bx+si],al
00003FC6  0000              add [bx+si],al
00003FC8  0000              add [bx+si],al
00003FCA  0000              add [bx+si],al
00003FCC  0000              add [bx+si],al
00003FCE  0000              add [bx+si],al
00003FD0  0000              add [bx+si],al
00003FD2  0000              add [bx+si],al
00003FD4  0000              add [bx+si],al
00003FD6  0000              add [bx+si],al
00003FD8  0000              add [bx+si],al
00003FDA  0000              add [bx+si],al
00003FDC  0000              add [bx+si],al
00003FDE  0000              add [bx+si],al
00003FE0  0000              add [bx+si],al
00003FE2  0000              add [bx+si],al
00003FE4  0000              add [bx+si],al
00003FE6  0000              add [bx+si],al
00003FE8  0000              add [bx+si],al
00003FEA  0000              add [bx+si],al
00003FEC  0000              add [bx+si],al
00003FEE  0000              add [bx+si],al
00003FF0  0000              add [bx+si],al
00003FF2  0000              add [bx+si],al
00003FF4  0000              add [bx+si],al
00003FF6  0000              add [bx+si],al
00003FF8  0000              add [bx+si],al
00003FFA  0000              add [bx+si],al
00003FFC  0000              add [bx+si],al
00003FFE  0000              add [bx+si],al
