00000000  3B626F            cmp sp,[bp+si+0x6f]
00000003  6F                outsw
00000004  7428              jz 0x2e
00000006  290A              sub [bp+si],cx
00000008  3B3B              cmp di,[bp+di]
0000000A  3B3B              cmp di,[bp+di]
0000000C  3B3B              cmp di,[bp+di]
0000000E  3B3B              cmp di,[bp+di]
00000010  3B3B              cmp di,[bp+di]
00000012  3B3B              cmp di,[bp+di]
00000014  3B3B              cmp di,[bp+di]
00000016  3B3B              cmp di,[bp+di]
00000018  3B3B              cmp di,[bp+di]
0000001A  3B3B              cmp di,[bp+di]
0000001C  3B3B              cmp di,[bp+di]
0000001E  3B3B              cmp di,[bp+di]
00000020  3B3B              cmp di,[bp+di]
00000022  3B3B              cmp di,[bp+di]
00000024  3B3B              cmp di,[bp+di]
00000026  3B3B              cmp di,[bp+di]
00000028  3B3B              cmp di,[bp+di]
0000002A  3B3B              cmp di,[bp+di]
0000002C  3B3B              cmp di,[bp+di]
0000002E  3B3B              cmp di,[bp+di]
00000030  3B3B              cmp di,[bp+di]
00000032  3B3B              cmp di,[bp+di]
00000034  3B3B              cmp di,[bp+di]
00000036  3B3B              cmp di,[bp+di]
00000038  3B3B              cmp di,[bp+di]
0000003A  3B3B              cmp di,[bp+di]
0000003C  3B3B              cmp di,[bp+di]
0000003E  3B3B              cmp di,[bp+di]
00000040  3B0A              cmp cx,[bp+si]
00000042  3B20              cmp sp,[bx+si]
00000044  E383              jcxz 0xffc9
00000046  9E                sahf
00000047  E382              jcxz 0xffcb
00000049  AF                scasw
0000004A  E383              jcxz 0xffcf
0000004C  AD                lodsw
0000004D  0A3B              or bh,[bp+di]
0000004F  3B3B              cmp di,[bp+di]
00000051  3B3B              cmp di,[bp+di]
00000053  3B3B              cmp di,[bp+di]
00000055  3B3B              cmp di,[bp+di]
00000057  3B3B              cmp di,[bp+di]
00000059  3B3B              cmp di,[bp+di]
0000005B  3B3B              cmp di,[bp+di]
0000005D  3B3B              cmp di,[bp+di]
0000005F  3B3B              cmp di,[bp+di]
00000061  3B3B              cmp di,[bp+di]
00000063  3B3B              cmp di,[bp+di]
00000065  3B3B              cmp di,[bp+di]
00000067  3B3B              cmp di,[bp+di]
00000069  3B3B              cmp di,[bp+di]
0000006B  3B3B              cmp di,[bp+di]
0000006D  3B3B              cmp di,[bp+di]
0000006F  3B3B              cmp di,[bp+di]
00000071  3B3B              cmp di,[bp+di]
00000073  3B3B              cmp di,[bp+di]
00000075  3B3B              cmp di,[bp+di]
00000077  3B3B              cmp di,[bp+di]
00000079  3B3B              cmp di,[bp+di]
0000007B  3B3B              cmp di,[bp+di]
0000007D  3B3B              cmp di,[bp+di]
0000007F  3B3B              cmp di,[bp+di]
00000081  3B3B              cmp di,[bp+di]
00000083  3B3B              cmp di,[bp+di]
00000085  3B3B              cmp di,[bp+di]
00000087  0A20              or ah,[bx+si]
00000089  2020              and [bx+si],ah
0000008B  2020              and [bx+si],ah
0000008D  2020              and [bx+si],ah
0000008F  2025              and [di],ah
00000091  696E636C75        imul bp,[bp+0x63],word 0x756c
00000096  64652022          and [gs:bp+si],ah
0000009A  2F                das
0000009B  686F6D            push word 0x6d6f
0000009E  652F              gs das
000000A0  6D                insw
000000A1  386B75            cmp [bp+di+0x75],ch
000000A4  2F                das
000000A5  7072              jo 0x119
000000A7  6F                outsw
000000A8  672F              a32 das
000000AA  7372              jnc 0x11e
000000AC  632F              arpl [bx],bp
000000AE  696E636C75        imul bp,[bp+0x63],word 0x756c
000000B3  64652F            gs das
000000B6  6D                insw
000000B7  61                popa
000000B8  63726F            arpl [bp+si+0x6f],si
000000BB  2E61              cs popa
000000BD  736D              jnc 0x12c
000000BF  220A              and cl,[bp+si]
000000C1  2020              and [bx+si],ah
000000C3  2020              and [bx+si],ah
000000C5  2020              and [bx+si],ah
000000C7  2020              and [bx+si],ah
000000C9  25696E            and ax,0x6e69
000000CC  636C75            arpl [si+0x75],bp
000000CF  64652022          and [gs:bp+si],ah
000000D3  2F                das
000000D4  686F6D            push word 0x6d6f
000000D7  652F              gs das
000000D9  6D                insw
000000DA  386B75            cmp [bp+di+0x75],ch
000000DD  2F                das
000000DE  7072              jo 0x152
000000E0  6F                outsw
000000E1  672F              a32 das
000000E3  7372              jnc 0x157
000000E5  632F              arpl [bx],bp
000000E7  696E636C75        imul bp,[bp+0x63],word 0x756c
000000EC  64652F            gs das
000000EF  646566696E652E61  imul ebp,[gs:bp+0x65],dword 0x6d73612e
         -736D
000000F9  220A              and cl,[bp+si]
000000FB  0A20              or ah,[bx+si]
000000FD  2020              and [bx+si],ah
000000FF  2020              and [bx+si],ah
00000101  2020              and [bx+si],ah
00000103  204F52            and [bx+0x52],cl
00000106  47                inc di
00000107  2020              and [bx+si],ah
00000109  2020              and [bx+si],ah
0000010B  20424F            and [bp+si+0x4f],al
0000010E  4F                dec di
0000010F  54                push sp
00000110  5F                pop di
00000111  4C                dec sp
00000112  4F                dec di
00000113  41                inc cx
00000114  44                inc sp
00000115  2020              and [bx+si],ah
00000117  2020              and [bx+si],ah
00000119  2020              and [bx+si],ah
0000011B  2020              and [bx+si],ah
0000011D  2020              and [bx+si],ah
0000011F  2020              and [bx+si],ah
00000121  2020              and [bx+si],ah
00000123  2020              and [bx+si],ah
00000125  2020              and [bx+si],ah
00000127  2020              and [bx+si],ah
00000129  2020              and [bx+si],ah
0000012B  2020              and [bx+si],ah
0000012D  2020              and [bx+si],ah
0000012F  2020              and [bx+si],ah
00000131  2020              and [bx+si],ah
00000133  203B              and [bp+di],bh
00000135  20E3              and bl,ah
00000137  8397E383AD        adc word [bx-0x7c1d],byte -0x53
0000013C  E382              jcxz 0xc0
0000013E  B0E3              mov al,0xe3
00000140  83A9E383A0        sub word [bx+di-0x7c1d],byte -0x60
00000145  E381              jcxz 0xc8
00000147  AE                scasb
00000148  E9968B            jmp 0x8ce1
0000014B  E5A7              in ax,0xa7
0000014D  8BE4              mov sp,sp
0000014F  BD8DE7            mov bp,0xe78d
00000152  BDAEE3            mov bp,0xe3ae
00000155  82                db 0x82
00000156  92                xchg ax,dx
00000157  E8A8AD            call 0xaf02
0000015A  E5AE              in ax,0xae
0000015C  9A0A3B3B3B        call 0x3b3b:0x3b0a
00000161  3B3B              cmp di,[bp+di]
00000163  3B3B              cmp di,[bp+di]
00000165  3B3B              cmp di,[bp+di]
00000167  3B3B              cmp di,[bp+di]
00000169  3B3B              cmp di,[bp+di]
0000016B  3B3B              cmp di,[bp+di]
0000016D  3B3B              cmp di,[bp+di]
0000016F  3B3B              cmp di,[bp+di]
00000171  3B3B              cmp di,[bp+di]
00000173  3B3B              cmp di,[bp+di]
00000175  3B3B              cmp di,[bp+di]
00000177  3B3B              cmp di,[bp+di]
00000179  3B3B              cmp di,[bp+di]
0000017B  3B3B              cmp di,[bp+di]
0000017D  3B3B              cmp di,[bp+di]
0000017F  3B3B              cmp di,[bp+di]
00000181  3B3B              cmp di,[bp+di]
00000183  3B3B              cmp di,[bp+di]
00000185  3B3B              cmp di,[bp+di]
00000187  3B3B              cmp di,[bp+di]
00000189  3B3B              cmp di,[bp+di]
0000018B  3B3B              cmp di,[bp+di]
0000018D  3B3B              cmp di,[bp+di]
0000018F  3B3B              cmp di,[bp+di]
00000191  3B3B              cmp di,[bp+di]
00000193  3B3B              cmp di,[bp+di]
00000195  3B3B              cmp di,[bp+di]
00000197  0A3B              or bh,[bp+di]
00000199  20E3              and bl,ah
0000019B  82                db 0x82
0000019C  A8E3              test al,0xe3
0000019E  83B3E38388        xor word [bp+di-0x7c1d],byte -0x78
000001A3  E383              jcxz 0x128
000001A5  AA                stosb
000001A6  E383              jcxz 0x12b
000001A8  9D                popf
000001A9  E382              jcxz 0x12d
000001AB  A4                movsb
000001AC  E383              jcxz 0x131
000001AE  B3E3              mov bl,0xe3
000001B0  83880A3B3B        or word [bx+si+0x3b0a],byte +0x3b
000001B5  3B3B              cmp di,[bp+di]
000001B7  3B3B              cmp di,[bp+di]
000001B9  3B3B              cmp di,[bp+di]
000001BB  3B3B              cmp di,[bp+di]
000001BD  3B3B              cmp di,[bp+di]
000001BF  3B3B              cmp di,[bp+di]
000001C1  3B3B              cmp di,[bp+di]
000001C3  3B3B              cmp di,[bp+di]
000001C5  3B3B              cmp di,[bp+di]
000001C7  3B3B              cmp di,[bp+di]
000001C9  3B3B              cmp di,[bp+di]
000001CB  3B3B              cmp di,[bp+di]
000001CD  3B3B              cmp di,[bp+di]
000001CF  3B3B              cmp di,[bp+di]
000001D1  3B3B              cmp di,[bp+di]
000001D3  3B3B              cmp di,[bp+di]
000001D5  3B3B              cmp di,[bp+di]
000001D7  3B3B              cmp di,[bp+di]
000001D9  3B3B              cmp di,[bp+di]
000001DB  3B3B              cmp di,[bp+di]
000001DD  3B3B              cmp di,[bp+di]
000001DF  3B3B              cmp di,[bp+di]
000001E1  3B3B              cmp di,[bp+di]
000001E3  3B3B              cmp di,[bp+di]
000001E5  3B3B              cmp di,[bp+di]
000001E7  3B3B              cmp di,[bp+di]
000001E9  3B3B              cmp di,[bp+di]
000001EB  3B0A              cmp cx,[bp+si]
000001ED  656E              gs outsb
000001EF  7472              jz 0x263
000001F1  793A              jns 0x22d
000001F3  0A0A              or cl,[bp+si]
000001F5  2020              and [bx+si],ah
000001F7  2020              and [bx+si],ah
000001F9  2020              and [bx+si],ah
000001FB  2020              and [bx+si],ah
000001FD  3B3B              cmp di,[bp+di]
000001FF  3B3B              cmp di,[bp+di]
00000201  3B3B              cmp di,[bp+di]
00000203  3B3B              cmp di,[bp+di]
00000205  3B3B              cmp di,[bp+di]
00000207  3B3B              cmp di,[bp+di]
00000209  3B3B              cmp di,[bp+di]
0000020B  3B3B              cmp di,[bp+di]
0000020D  3B3B              cmp di,[bp+di]
0000020F  3B3B              cmp di,[bp+di]
00000211  3B3B              cmp di,[bp+di]
00000213  3B3B              cmp di,[bp+di]
00000215  3B3B              cmp di,[bp+di]
00000217  3B3B              cmp di,[bp+di]
00000219  3B3B              cmp di,[bp+di]
0000021B  3B3B              cmp di,[bp+di]
0000021D  3B3B              cmp di,[bp+di]
0000021F  3B3B              cmp di,[bp+di]
00000221  3B3B              cmp di,[bp+di]
00000223  3B3B              cmp di,[bp+di]
00000225  3B3B              cmp di,[bp+di]
00000227  3B3B              cmp di,[bp+di]
00000229  3B3B              cmp di,[bp+di]
0000022B  3B3B              cmp di,[bp+di]
0000022D  3B0A              cmp cx,[bp+si]
0000022F  2020              and [bx+si],ah
00000231  2020              and [bx+si],ah
00000233  2020              and [bx+si],ah
00000235  2020              and [bx+si],ah
00000237  3B20              cmp sp,[bx+si]
00000239  42                inc dx
0000023A  50                push ax
0000023B  42                inc dx
0000023C  2820              sub [bx+si],ah
0000023E  42                inc dx
0000023F  49                dec cx
00000240  4F                dec di
00000241  53                push bx
00000242  205061            and [bx+si+0x61],dl
00000245  7261              jc 0x2a8
00000247  6D                insw
00000248  657465            gs jz 0x2b0
0000024B  7220              jc 0x26d
0000024D  42                inc dx
0000024E  6C                insb
0000024F  6F                outsw
00000250  636B20            arpl [bp+di+0x20],bp
00000253  290A              sub [bp+si],cx
00000255  2020              and [bx+si],ah
00000257  2020              and [bx+si],ah
00000259  2020              and [bx+si],ah
0000025B  2020              and [bx+si],ah
0000025D  3B3B              cmp di,[bp+di]
0000025F  3B3B              cmp di,[bp+di]
00000261  3B3B              cmp di,[bp+di]
00000263  3B3B              cmp di,[bp+di]
00000265  3B3B              cmp di,[bp+di]
00000267  3B3B              cmp di,[bp+di]
00000269  3B3B              cmp di,[bp+di]
0000026B  3B3B              cmp di,[bp+di]
0000026D  3B3B              cmp di,[bp+di]
0000026F  3B3B              cmp di,[bp+di]
00000271  3B3B              cmp di,[bp+di]
00000273  3B3B              cmp di,[bp+di]
00000275  3B3B              cmp di,[bp+di]
00000277  3B3B              cmp di,[bp+di]
00000279  3B3B              cmp di,[bp+di]
0000027B  3B3B              cmp di,[bp+di]
0000027D  3B3B              cmp di,[bp+di]
0000027F  3B3B              cmp di,[bp+di]
00000281  3B3B              cmp di,[bp+di]
00000283  3B3B              cmp di,[bp+di]
00000285  3B3B              cmp di,[bp+di]
00000287  3B3B              cmp di,[bp+di]
00000289  3B3B              cmp di,[bp+di]
0000028B  3B3B              cmp di,[bp+di]
0000028D  3B0A              cmp cx,[bp+si]
0000028F  2020              and [bx+si],ah
00000291  2020              and [bx+si],ah
00000293  2020              and [bx+si],ah
00000295  2020              and [bx+si],ah
00000297  6A6D              push byte +0x6d
00000299  7020              jo 0x2bb
0000029B  2020              and [bx+si],ah
0000029D  2020              and [bx+si],ah
0000029F  49                dec cx
000002A0  50                push ax
000002A1  4C                dec sp
000002A2  2020              and [bx+si],ah
000002A4  2020              and [bx+si],ah
000002A6  2020              and [bx+si],ah
000002A8  2020              and [bx+si],ah
000002AA  2020              and [bx+si],ah
000002AC  2020              and [bx+si],ah
000002AE  2020              and [bx+si],ah
000002B0  2020              and [bx+si],ah
000002B2  2020              and [bx+si],ah
000002B4  2020              and [bx+si],ah
000002B6  2020              and [bx+si],ah
000002B8  2020              and [bx+si],ah
000002BA  2020              and [bx+si],ah
000002BC  2020              and [bx+si],ah
000002BE  2020              and [bx+si],ah
000002C0  2020              and [bx+si],ah
000002C2  2020              and [bx+si],ah
000002C4  2020              and [bx+si],ah
000002C6  203B              and [bp+di],bh
000002C8  204950            and [bx+di+0x50],cl
000002CB  4C                dec sp
000002CC  E383              jcxz 0x251
000002CE  A9E383            test ax,0x83e3
000002D1  99                cwd
000002D2  E383              jcxz 0x257
000002D4  AB                stosw
000002D5  E381              jcxz 0x258
000002D7  B8E7A7            mov ax,0xa7e7
000002DA  BBE58B            mov bx,0x8be5
000002DD  95                xchg ax,bp
000002DE  0A20              or ah,[bx+si]
000002E0  2020              and [bx+si],ah
000002E2  2020              and [bx+si],ah
000002E4  2020              and [bx+si],ah
000002E6  207469            and [si+0x69],dh
000002E9  6D                insw
000002EA  657320            gs jnc 0x30d
000002ED  2039              and [bx+di],bh
000002EF  3020              xor [bx+si],ah
000002F1  2D2028            sub ax,0x2820
000002F4  2024              and [si],ah
000002F6  202D              and [di],ch
000002F8  2024              and [si],ah
000002FA  2420              and al,0x20
000002FC  2920              sub [bx+si],sp
000002FE  646220            bound sp,[fs:bx+si]
00000301  307839            xor [bx+si+0x39],bh
00000304  3020              xor [bx+si],ah
00000306  2020              and [bx+si],ah
00000308  2020              and [bx+si],ah
0000030A  2020              and [bx+si],ah
0000030C  2020              and [bx+si],ah
0000030E  2020              and [bx+si],ah
00000310  2020              and [bx+si],ah
00000312  2020              and [bx+si],ah
00000314  2020              and [bx+si],ah
00000316  203B              and [bp+di],bh
00000318  204250            and [bp+si+0x50],al
0000031B  42                inc dx
0000031C  E9A098            jmp 0x9bbf
0000031F  E59F              in ax,0x9f
00000321  9F                lahf
00000322  E382              jcxz 0x2a6
00000324  92                xchg ax,dx
00000325  E7A2              out 0xa2,ax
00000327  BAE4BF            mov dx,0xbfe4
0000032A  9D                popf
0000032B  0A4950            or cl,[bx+di+0x50]
0000032E  4C                dec sp
0000032F  3A0A              cmp cl,[bp+si]
00000331  2020              and [bx+si],ah
00000333  2020              and [bx+si],ah
00000335  2020              and [bx+si],ah
00000337  2020              and [bx+si],ah
00000339  3B3B              cmp di,[bp+di]
0000033B  3B3B              cmp di,[bp+di]
0000033D  3B3B              cmp di,[bp+di]
0000033F  3B3B              cmp di,[bp+di]
00000341  3B3B              cmp di,[bp+di]
00000343  3B3B              cmp di,[bp+di]
00000345  3B3B              cmp di,[bp+di]
00000347  3B3B              cmp di,[bp+di]
00000349  3B3B              cmp di,[bp+di]
0000034B  3B3B              cmp di,[bp+di]
0000034D  3B3B              cmp di,[bp+di]
0000034F  3B3B              cmp di,[bp+di]
00000351  3B3B              cmp di,[bp+di]
00000353  3B3B              cmp di,[bp+di]
00000355  3B3B              cmp di,[bp+di]
00000357  3B3B              cmp di,[bp+di]
00000359  3B3B              cmp di,[bp+di]
0000035B  3B3B              cmp di,[bp+di]
0000035D  3B3B              cmp di,[bp+di]
0000035F  3B3B              cmp di,[bp+di]
00000361  3B3B              cmp di,[bp+di]
00000363  3B3B              cmp di,[bp+di]
00000365  3B3B              cmp di,[bp+di]
00000367  3B3B              cmp di,[bp+di]
00000369  3B0A              cmp cx,[bp+si]
0000036B  2020              and [bx+si],ah
0000036D  2020              and [bx+si],ah
0000036F  2020              and [bx+si],ah
00000371  2020              and [bx+si],ah
00000373  3B20              cmp sp,[bx+si]
00000375  49                dec cx
00000376  50                push ax
00000377  4C                dec sp
00000378  2820              sub [bx+si],ah
0000037A  49                dec cx
0000037B  6E                outsb
0000037C  697469616C        imul si,[si+0x69],word 0x6c61
00000381  205072            and [bx+si+0x72],dl
00000384  6F                outsw
00000385  677261            jc 0x3e9
00000388  6D                insw
00000389  204C6F            and [si+0x6f],cl
0000038C  61                popa
0000038D  64657220          gs jc 0x3b1
00000391  290A              sub [bp+si],cx
00000393  2020              and [bx+si],ah
00000395  2020              and [bx+si],ah
00000397  2020              and [bx+si],ah
00000399  2020              and [bx+si],ah
0000039B  3B3B              cmp di,[bp+di]
0000039D  3B3B              cmp di,[bp+di]
0000039F  3B3B              cmp di,[bp+di]
000003A1  3B3B              cmp di,[bp+di]
000003A3  3B3B              cmp di,[bp+di]
000003A5  3B3B              cmp di,[bp+di]
000003A7  3B3B              cmp di,[bp+di]
000003A9  3B3B              cmp di,[bp+di]
000003AB  3B3B              cmp di,[bp+di]
000003AD  3B3B              cmp di,[bp+di]
000003AF  3B3B              cmp di,[bp+di]
000003B1  3B3B              cmp di,[bp+di]
000003B3  3B3B              cmp di,[bp+di]
000003B5  3B3B              cmp di,[bp+di]
000003B7  3B3B              cmp di,[bp+di]
000003B9  3B3B              cmp di,[bp+di]
000003BB  3B3B              cmp di,[bp+di]
000003BD  3B3B              cmp di,[bp+di]
000003BF  3B3B              cmp di,[bp+di]
000003C1  3B3B              cmp di,[bp+di]
000003C3  3B3B              cmp di,[bp+di]
000003C5  3B3B              cmp di,[bp+di]
000003C7  3B3B              cmp di,[bp+di]
000003C9  3B3B              cmp di,[bp+di]
000003CB  3B0A              cmp cx,[bp+si]
000003CD  2020              and [bx+si],ah
000003CF  2020              and [bx+si],ah
000003D1  2020              and [bx+si],ah
000003D3  2020              and [bx+si],ah
000003D5  636C69            arpl [si+0x69],bp
000003D8  2020              and [bx+si],ah
000003DA  2020              and [bx+si],ah
000003DC  2020              and [bx+si],ah
000003DE  2020              and [bx+si],ah
000003E0  2020              and [bx+si],ah
000003E2  2020              and [bx+si],ah
000003E4  2020              and [bx+si],ah
000003E6  2020              and [bx+si],ah
000003E8  2020              and [bx+si],ah
000003EA  2020              and [bx+si],ah
000003EC  2020              and [bx+si],ah
000003EE  2020              and [bx+si],ah
000003F0  2020              and [bx+si],ah
000003F2  2020              and [bx+si],ah
000003F4  2020              and [bx+si],ah
000003F6  2020              and [bx+si],ah
000003F8  2020              and [bx+si],ah
000003FA  2020              and [bx+si],ah
000003FC  2020              and [bx+si],ah
000003FE  2020              and [bx+si],ah
00000400  2020              and [bx+si],ah
00000402  2020              and [bx+si],ah
00000404  203B              and [bp+di],bh
00000406  202F              and [bx],ch
00000408  2F                das
00000409  E589              in ax,0x89
0000040B  B2E3              mov dl,0xe3
0000040D  82                db 0x82
0000040E  8AE8              mov ch,al
00000410  BEBCE3            mov si,0xe3bc
00000413  81BFE7A681E6      cmp word [bx-0x5919],0xe681
00000419  AD                lodsw
0000041A  A20A0A            mov [0xa0a],al
0000041D  2020              and [bx+si],ah
0000041F  2020              and [bx+si],ah
00000421  2020              and [bx+si],ah
00000423  2020              and [bx+si],ah
00000425  6D                insw
00000426  6F                outsw
00000427  7620              jna 0x449
00000429  2020              and [bx+si],ah
0000042B  2020              and [bx+si],ah
0000042D  61                popa
0000042E  7820              js 0x450
00000430  2C20              sub al,0x20
00000432  307830            xor [bx+si+0x30],bh
00000435  3030              xor [bx+si],dh
00000437  3020              xor [bx+si],ah
00000439  2020              and [bx+si],ah
0000043B  2020              and [bx+si],ah
0000043D  2020              and [bx+si],ah
0000043F  2020              and [bx+si],ah
00000441  2020              and [bx+si],ah
00000443  2020              and [bx+si],ah
00000445  2020              and [bx+si],ah
00000447  2020              and [bx+si],ah
00000449  2020              and [bx+si],ah
0000044B  2020              and [bx+si],ah
0000044D  2020              and [bx+si],ah
0000044F  2020              and [bx+si],ah
00000451  2020              and [bx+si],ah
00000453  2020              and [bx+si],ah
00000455  3B20              cmp sp,[bx+si]
00000457  41                inc cx
00000458  58                pop ax
00000459  3D3078            cmp ax,0x7830
0000045C  3030              xor [bx+si],dh
0000045E  3030              xor [bx+si],dh
00000460  730A              jnc 0x46c
00000462  2020              and [bx+si],ah
00000464  2020              and [bx+si],ah
00000466  2020              and [bx+si],ah
00000468  2020              and [bx+si],ah
0000046A  6D                insw
0000046B  6F                outsw
0000046C  7620              jna 0x48e
0000046E  2020              and [bx+si],ah
00000470  2020              and [bx+si],ah
00000472  647320            fs jnc 0x495
00000475  2C20              sub al,0x20
00000477  61                popa
00000478  7820              js 0x49a
0000047A  2020              and [bx+si],ah
0000047C  2020              and [bx+si],ah
0000047E  2020              and [bx+si],ah
00000480  2020              and [bx+si],ah
00000482  2020              and [bx+si],ah
00000484  2020              and [bx+si],ah
00000486  2020              and [bx+si],ah
00000488  2020              and [bx+si],ah
0000048A  2020              and [bx+si],ah
0000048C  2020              and [bx+si],ah
0000048E  2020              and [bx+si],ah
00000490  2020              and [bx+si],ah
00000492  2020              and [bx+si],ah
00000494  2020              and [bx+si],ah
00000496  2020              and [bx+si],ah
00000498  2020              and [bx+si],ah
0000049A  3B20              cmp sp,[bx+si]
0000049C  44                inc sp
0000049D  53                push bx
0000049E  3D3078            cmp ax,0x7830
000004A1  3030              xor [bx+si],dh
000004A3  3030              xor [bx+si],dh
000004A5  0A20              or ah,[bx+si]
000004A7  2020              and [bx+si],ah
000004A9  2020              and [bx+si],ah
000004AB  2020              and [bx+si],ah
000004AD  206D6F            and [di+0x6f],ch
000004B0  7620              jna 0x4d2
000004B2  2020              and [bx+si],ah
000004B4  2020              and [bx+si],ah
000004B6  657320            gs jnc 0x4d9
000004B9  2C20              sub al,0x20
000004BB  61                popa
000004BC  7820              js 0x4de
000004BE  2020              and [bx+si],ah
000004C0  2020              and [bx+si],ah
000004C2  2020              and [bx+si],ah
000004C4  2020              and [bx+si],ah
000004C6  2020              and [bx+si],ah
000004C8  2020              and [bx+si],ah
000004CA  2020              and [bx+si],ah
000004CC  2020              and [bx+si],ah
000004CE  2020              and [bx+si],ah
000004D0  2020              and [bx+si],ah
000004D2  2020              and [bx+si],ah
000004D4  2020              and [bx+si],ah
000004D6  2020              and [bx+si],ah
000004D8  2020              and [bx+si],ah
000004DA  2020              and [bx+si],ah
000004DC  2020              and [bx+si],ah
000004DE  3B20              cmp sp,[bx+si]
000004E0  45                inc bp
000004E1  53                push bx
000004E2  3D3078            cmp ax,0x7830
000004E5  3030              xor [bx+si],dh
000004E7  3030              xor [bx+si],dh
000004E9  0A20              or ah,[bx+si]
000004EB  2020              and [bx+si],ah
000004ED  2020              and [bx+si],ah
000004EF  2020              and [bx+si],ah
000004F1  206D6F            and [di+0x6f],ch
000004F4  7620              jna 0x516
000004F6  2020              and [bx+si],ah
000004F8  2020              and [bx+si],ah
000004FA  7373              jnc 0x56f
000004FC  202C              and [si],ch
000004FE  206178            and [bx+di+0x78],ah
00000501  2020              and [bx+si],ah
00000503  2020              and [bx+si],ah
00000505  2020              and [bx+si],ah
00000507  2020              and [bx+si],ah
00000509  2020              and [bx+si],ah
0000050B  2020              and [bx+si],ah
0000050D  2020              and [bx+si],ah
0000050F  2020              and [bx+si],ah
00000511  2020              and [bx+si],ah
00000513  2020              and [bx+si],ah
00000515  2020              and [bx+si],ah
00000517  2020              and [bx+si],ah
00000519  2020              and [bx+si],ah
0000051B  2020              and [bx+si],ah
0000051D  2020              and [bx+si],ah
0000051F  2020              and [bx+si],ah
00000521  203B              and [bp+di],bh
00000523  205353            and [bp+di+0x53],dl
00000526  3D3078            cmp ax,0x7830
00000529  3030              xor [bx+si],dh
0000052B  3030              xor [bx+si],dh
0000052D  0A20              or ah,[bx+si]
0000052F  2020              and [bx+si],ah
00000531  2020              and [bx+si],ah
00000533  2020              and [bx+si],ah
00000535  206D6F            and [di+0x6f],ch
00000538  7620              jna 0x55a
0000053A  2020              and [bx+si],ah
0000053C  2020              and [bx+si],ah
0000053E  7370              jnc 0x5b0
00000540  202C              and [si],ch
00000542  20424F            and [bp+si+0x4f],al
00000545  4F                dec di
00000546  54                push sp
00000547  5F                pop di
00000548  4C                dec sp
00000549  4F                dec di
0000054A  41                inc cx
0000054B  44                inc sp
0000054C  2020              and [bx+si],ah
0000054E  2020              and [bx+si],ah
00000550  2020              and [bx+si],ah
00000552  2020              and [bx+si],ah
00000554  2020              and [bx+si],ah
00000556  2020              and [bx+si],ah
00000558  2020              and [bx+si],ah
0000055A  2020              and [bx+si],ah
0000055C  2020              and [bx+si],ah
0000055E  2020              and [bx+si],ah
00000560  2020              and [bx+si],ah
00000562  2020              and [bx+si],ah
00000564  2020              and [bx+si],ah
00000566  3B20              cmp sp,[bx+si]
00000568  53                push bx
00000569  50                push ax
0000056A  3D3078            cmp ax,0x7830
0000056D  37                aaa
0000056E  6330              arpl [bx+si],si
00000570  300A              xor [bp+si],cl
00000572  0A20              or ah,[bx+si]
00000574  2020              and [bx+si],ah
00000576  2020              and [bx+si],ah
00000578  2020              and [bx+si],ah
0000057A  207374            and [bp+di+0x74],dh
0000057D  69202020          imul sp,[bx+si],word 0x2020
00000581  2020              and [bx+si],ah
00000583  2020              and [bx+si],ah
00000585  2020              and [bx+si],ah
00000587  2020              and [bx+si],ah
00000589  2020              and [bx+si],ah
0000058B  2020              and [bx+si],ah
0000058D  2020              and [bx+si],ah
0000058F  2020              and [bx+si],ah
00000591  2020              and [bx+si],ah
00000593  2020              and [bx+si],ah
00000595  2020              and [bx+si],ah
00000597  2020              and [bx+si],ah
00000599  2020              and [bx+si],ah
0000059B  2020              and [bx+si],ah
0000059D  2020              and [bx+si],ah
0000059F  2020              and [bx+si],ah
000005A1  2020              and [bx+si],ah
000005A3  2020              and [bx+si],ah
000005A5  2020              and [bx+si],ah
000005A7  2020              and [bx+si],ah
000005A9  2020              and [bx+si],ah
000005AB  3B20              cmp sp,[bx+si]
000005AD  2F                das
000005AE  2F                das
000005AF  E589              in ax,0x89
000005B1  B2E3              mov dl,0xe3
000005B3  82                db 0x82
000005B4  8AE8              mov ch,al
000005B6  BEBCE3            mov si,0xe3bc
000005B9  81BFE8A8B1E5      cmp word [bx-0x5718],0xe5b1
000005BF  8F                db 0x8f
000005C0  AF                scasw
000005C1  0A0A              or cl,[bp+si]
000005C3  2020              and [bx+si],ah
000005C5  2020              and [bx+si],ah
000005C7  2020              and [bx+si],ah
000005C9  2020              and [bx+si],ah
000005CB  6D                insw
000005CC  6F                outsw
000005CD  7620              jna 0x5ef
000005CF  2020              and [bx+si],ah
000005D1  2020              and [bx+si],ah
000005D3  5B                pop bx
000005D4  42                inc dx
000005D5  4F                dec di
000005D6  4F                dec di
000005D7  54                push sp
000005D8  202B              and [bp+di],ch
000005DA  206472            and [si+0x72],ah
000005DD  6976652E6E        imul si,[bp+0x65],word 0x6e2e
000005E2  6F                outsw
000005E3  5D                pop bp
000005E4  202C              and [si],ch
000005E6  20646C            and [si+0x6c],ah
000005E9  2020              and [bx+si],ah
000005EB  2020              and [bx+si],ah
000005ED  2020              and [bx+si],ah
000005EF  2020              and [bx+si],ah
000005F1  2020              and [bx+si],ah
000005F3  2020              and [bx+si],ah
000005F5  2020              and [bx+si],ah
000005F7  2020              and [bx+si],ah
000005F9  2020              and [bx+si],ah
000005FB  3B20              cmp sp,[bx+si]
000005FD  E383              jcxz 0x582
000005FF  89E3              mov bx,sp
00000601  83A9E382A4        sub word [bx+di-0x7d1d],byte -0x5c
00000606  E383              jcxz 0x58b
00000608  96                xchg ax,si
00000609  E795              out 0x95,ax
0000060B  AA                stosb
0000060C  E58F              in ax,0x8f
0000060E  B70A              mov bh,0xa
00000610  2020              and [bx+si],ah
00000612  2020              and [bx+si],ah
00000614  2020              and [bx+si],ah
00000616  2020              and [bx+si],ah
00000618  3B3B              cmp di,[bp+di]
0000061A  3B3B              cmp di,[bp+di]
0000061C  3B3B              cmp di,[bp+di]
0000061E  3B3B              cmp di,[bp+di]
00000620  3B3B              cmp di,[bp+di]
00000622  3B3B              cmp di,[bp+di]
00000624  3B3B              cmp di,[bp+di]
00000626  3B3B              cmp di,[bp+di]
00000628  3B3B              cmp di,[bp+di]
0000062A  3B3B              cmp di,[bp+di]
0000062C  3B3B              cmp di,[bp+di]
0000062E  3B3B              cmp di,[bp+di]
00000630  3B3B              cmp di,[bp+di]
00000632  3B3B              cmp di,[bp+di]
00000634  3B3B              cmp di,[bp+di]
00000636  3B3B              cmp di,[bp+di]
00000638  3B3B              cmp di,[bp+di]
0000063A  3B3B              cmp di,[bp+di]
0000063C  3B3B              cmp di,[bp+di]
0000063E  3B3B              cmp di,[bp+di]
00000640  3B3B              cmp di,[bp+di]
00000642  3B3B              cmp di,[bp+di]
00000644  3B3B              cmp di,[bp+di]
00000646  3B3B              cmp di,[bp+di]
00000648  3B0A              cmp cx,[bp+si]
0000064A  2020              and [bx+si],ah
0000064C  2020              and [bx+si],ah
0000064E  2020              and [bx+si],ah
00000650  2020              and [bx+si],ah
00000652  3B20              cmp sp,[bx+si]
00000654  E696              out 0x96,al
00000656  87E5              xchg sp,bp
00000658  AD                lodsw
00000659  97                xchg ax,di
0000065A  E588              in ax,0x88
0000065C  97                xchg ax,di
0000065D  E382              jcxz 0x5e1
0000065F  92                xchg ax,dx
00000660  E8A1A8            call 0xaf04
00000663  E7A4              out 0xa4,ax
00000665  BA0A20            mov dx,0x200a
00000668  2020              and [bx+si],ah
0000066A  2020              and [bx+si],ah
0000066C  2020              and [bx+si],ah
0000066E  203B              and [bp+di],bh
00000670  3B3B              cmp di,[bp+di]
00000672  3B3B              cmp di,[bp+di]
00000674  3B3B              cmp di,[bp+di]
00000676  3B3B              cmp di,[bp+di]
00000678  3B3B              cmp di,[bp+di]
0000067A  3B3B              cmp di,[bp+di]
0000067C  3B3B              cmp di,[bp+di]
0000067E  3B3B              cmp di,[bp+di]
00000680  3B3B              cmp di,[bp+di]
00000682  3B3B              cmp di,[bp+di]
00000684  3B3B              cmp di,[bp+di]
00000686  3B3B              cmp di,[bp+di]
00000688  3B3B              cmp di,[bp+di]
0000068A  3B3B              cmp di,[bp+di]
0000068C  3B3B              cmp di,[bp+di]
0000068E  3B3B              cmp di,[bp+di]
00000690  3B3B              cmp di,[bp+di]
00000692  3B3B              cmp di,[bp+di]
00000694  3B3B              cmp di,[bp+di]
00000696  3B3B              cmp di,[bp+di]
00000698  3B3B              cmp di,[bp+di]
0000069A  3B3B              cmp di,[bp+di]
0000069C  3B3B              cmp di,[bp+di]
0000069E  3B3B              cmp di,[bp+di]
000006A0  0A20              or ah,[bx+si]
000006A2  2020              and [bx+si],ah
000006A4  2020              and [bx+si],ah
000006A6  2020              and [bx+si],ah
000006A8  206364            and [bp+di+0x64],ah
000006AB  65636C20          arpl [gs:si+0x20],bp
000006AF  2020              and [bx+si],ah
000006B1  7075              jo 0x728
000006B3  7473              jz 0x728
000006B5  202C              and [si],ch
000006B7  202E7330          and [0x3073],ch
000006BB  2020              and [bx+si],ah
000006BD  2020              and [bx+si],ah
000006BF  2020              and [bx+si],ah
000006C1  2020              and [bx+si],ah
000006C3  2020              and [bx+si],ah
000006C5  2020              and [bx+si],ah
000006C7  2020              and [bx+si],ah
000006C9  2020              and [bx+si],ah
000006CB  2020              and [bx+si],ah
000006CD  2020              and [bx+si],ah
000006CF  2020              and [bx+si],ah
000006D1  2020              and [bx+si],ah
000006D3  2020              and [bx+si],ah
000006D5  2020              and [bx+si],ah
000006D7  2020              and [bx+si],ah
000006D9  3B20              cmp sp,[bx+si]
000006DB  7075              jo 0x752
000006DD  7473              jz 0x752
000006DF  282E7330          sub [0x3073],ch
000006E3  293B              sub [bp+di],di
000006E5  2F                das
000006E6  2F                das
000006E7  42                inc dx
000006E8  6F                outsw
000006E9  6F                outsw
000006EA  7469              jz 0x755
000006EC  6E                outsb
000006ED  672E2E2E0A0A      or cl,[cs:edx]
000006F3  2020              and [bx+si],ah
000006F5  2020              and [bx+si],ah
000006F7  2020              and [bx+si],ah
000006F9  2020              and [bx+si],ah
000006FB  3B3B              cmp di,[bp+di]
000006FD  3B3B              cmp di,[bp+di]
000006FF  3B3B              cmp di,[bp+di]
00000701  3B3B              cmp di,[bp+di]
00000703  3B3B              cmp di,[bp+di]
00000705  3B3B              cmp di,[bp+di]
00000707  3B3B              cmp di,[bp+di]
00000709  3B3B              cmp di,[bp+di]
0000070B  3B3B              cmp di,[bp+di]
0000070D  3B3B              cmp di,[bp+di]
0000070F  3B3B              cmp di,[bp+di]
00000711  3B3B              cmp di,[bp+di]
00000713  3B3B              cmp di,[bp+di]
00000715  3B3B              cmp di,[bp+di]
00000717  3B3B              cmp di,[bp+di]
00000719  3B3B              cmp di,[bp+di]
0000071B  3B3B              cmp di,[bp+di]
0000071D  3B3B              cmp di,[bp+di]
0000071F  3B3B              cmp di,[bp+di]
00000721  3B3B              cmp di,[bp+di]
00000723  3B3B              cmp di,[bp+di]
00000725  3B3B              cmp di,[bp+di]
00000727  3B3B              cmp di,[bp+di]
00000729  3B3B              cmp di,[bp+di]
0000072B  3B0A              cmp cx,[bp+si]
0000072D  2020              and [bx+si],ah
0000072F  2020              and [bx+si],ah
00000731  2020              and [bx+si],ah
00000733  2020              and [bx+si],ah
00000735  3B20              cmp sp,[bx+si]
00000737  E6AC              out 0xac,al
00000739  A1E381            mov ax,[0x81e3]
0000073C  AE                scasb
0000073D  EF                out dx,ax
0000073E  BC95EF            mov sp,0xef95
00000741  BC91EF            mov sp,0xef91
00000744  BC92E3            mov sp,0xe392
00000747  8390E382A4        adc word [bx+si-0x7d1d],byte -0x5c
0000074C  E383              jcxz 0x6d1
0000074E  88E3              mov bl,ah
00000750  82                db 0x82
00000751  92                xchg ax,dx
00000752  E8AAAD            call 0xb4ff
00000755  E381              jcxz 0x6d8
00000757  BFE8BE            mov di,0xbee8
0000075A  BCE382            mov sp,0x82e3
0000075D  800A20            or byte [bp+si],0x20
00000760  2020              and [bx+si],ah
00000762  2020              and [bx+si],ah
00000764  2020              and [bx+si],ah
00000766  203B              and [bp+di],bh
00000768  3B3B              cmp di,[bp+di]
0000076A  3B3B              cmp di,[bp+di]
0000076C  3B3B              cmp di,[bp+di]
0000076E  3B3B              cmp di,[bp+di]
00000770  3B3B              cmp di,[bp+di]
00000772  3B3B              cmp di,[bp+di]
00000774  3B3B              cmp di,[bp+di]
00000776  3B3B              cmp di,[bp+di]
00000778  3B3B              cmp di,[bp+di]
0000077A  3B3B              cmp di,[bp+di]
0000077C  3B3B              cmp di,[bp+di]
0000077E  3B3B              cmp di,[bp+di]
00000780  3B3B              cmp di,[bp+di]
00000782  3B3B              cmp di,[bp+di]
00000784  3B3B              cmp di,[bp+di]
00000786  3B3B              cmp di,[bp+di]
00000788  3B3B              cmp di,[bp+di]
0000078A  3B3B              cmp di,[bp+di]
0000078C  3B3B              cmp di,[bp+di]
0000078E  3B3B              cmp di,[bp+di]
00000790  3B3B              cmp di,[bp+di]
00000792  3B3B              cmp di,[bp+di]
00000794  3B3B              cmp di,[bp+di]
00000796  3B3B              cmp di,[bp+di]
00000798  0A20              or ah,[bx+si]
0000079A  2020              and [bx+si],ah
0000079C  2020              and [bx+si],ah
0000079E  2020              and [bx+si],ah
000007A0  206D6F            and [di+0x6f],ch
000007A3  7620              jna 0x7c5
000007A5  2020              and [bx+si],ah
000007A7  2020              and [bx+si],ah
000007A9  627820            bound di,[bx+si+0x20]
000007AC  2C20              sub al,0x20
000007AE  42                inc dx
000007AF  4F                dec di
000007B0  4F                dec di
000007B1  54                push sp
000007B2  5F                pop di
000007B3  53                push bx
000007B4  45                inc bp
000007B5  43                inc bx
000007B6  54                push sp
000007B7  202D              and [di],ch
000007B9  2031              and [bx+di],dh
000007BB  2020              and [bx+si],ah
000007BD  2020              and [bx+si],ah
000007BF  2020              and [bx+si],ah
000007C1  2020              and [bx+si],ah
000007C3  2020              and [bx+si],ah
000007C5  2020              and [bx+si],ah
000007C7  2020              and [bx+si],ah
000007C9  2020              and [bx+si],ah
000007CB  2020              and [bx+si],ah
000007CD  2020              and [bx+si],ah
000007CF  2020              and [bx+si],ah
000007D1  3B20              cmp sp,[bx+si]
000007D3  42                inc dx
000007D4  58                pop ax
000007D5  203D              and [di],bh
000007D7  20E6              and dh,ah
000007D9  AE                scasb
000007DA  8BE3              mov sp,bx
000007DC  82                db 0x82
000007DD  8AE3              mov ah,bl
000007DF  81AEE38396E3      sub word [bp-0x7c1d],0xe396
000007E5  83BCE38388        cmp word [si-0x7c1d],byte -0x78
000007EA  E382              jcxz 0x76e
000007EC  BBE382            mov bx,0x82e3
000007EF  AF                scasw
000007F0  E382              jcxz 0x774
000007F2  BFE695            mov di,0x95e6
000007F5  B00A              mov al,0xa
000007F7  2020              and [bx+si],ah
000007F9  2020              and [bx+si],ah
000007FB  2020              and [bx+si],ah
000007FD  2020              and [bx+si],ah
000007FF  6D                insw
00000800  6F                outsw
00000801  7620              jna 0x823
00000803  2020              and [bx+si],ah
00000805  2020              and [bx+si],ah
00000807  637820            arpl [bx+si+0x20],di
0000080A  2C20              sub al,0x20
0000080C  42                inc dx
0000080D  4F                dec di
0000080E  4F                dec di
0000080F  54                push sp
00000810  5F                pop di
00000811  4C                dec sp
00000812  4F                dec di
00000813  41                inc cx
00000814  44                inc sp
00000815  202B              and [bp+di],ch
00000817  205345            and [bp+di+0x45],dl
0000081A  43                inc bx
0000081B  54                push sp
0000081C  5F                pop di
0000081D  53                push bx
0000081E  49                dec cx
0000081F  5A                pop dx
00000820  45                inc bp
00000821  2020              and [bx+si],ah
00000823  2020              and [bx+si],ah
00000825  2020              and [bx+si],ah
00000827  2020              and [bx+si],ah
00000829  2020              and [bx+si],ah
0000082B  2020              and [bx+si],ah
0000082D  2020              and [bx+si],ah
0000082F  3B20              cmp sp,[bx+si]
00000831  43                inc bx
00000832  58                pop ax
00000833  203D              and [di],bh
00000835  20E6              and dh,ah
00000837  AC                lodsb
00000838  A1E381            mov ax,[0x81e3]
0000083B  AE                scasb
0000083C  E383              jcxz 0x7c1
0000083E  AD                lodsw
0000083F  E383              jcxz 0x7c4
00000841  BCE383            mov sp,0x83e3
00000844  89E3              mov bx,sp
00000846  82                db 0x82
00000847  A2E383            mov [0x83e3],al
0000084A  89E3              mov bx,sp
0000084C  83ACE382B9        sub word [si-0x7d1d],byte -0x47
00000851  0A0A              or cl,[bp+si]
00000853  2020              and [bx+si],ah
00000855  2020              and [bx+si],ah
00000857  2020              and [bx+si],ah
00000859  2020              and [bx+si],ah
0000085B  636465            arpl [si+0x65],sp
0000085E  636C20            arpl [si+0x20],bp
00000861  2020              and [bx+si],ah
00000863  7265              jc 0x8ca
00000865  61                popa
00000866  645F              fs pop di
00000868  636873            arpl [bx+si+0x73],bp
0000086B  2C20              sub al,0x20
0000086D  42                inc dx
0000086E  4F                dec di
0000086F  4F                dec di
00000870  54                push sp
00000871  2C20              sub al,0x20
00000873  206278            and [bp+si+0x78],ah
00000876  2C20              sub al,0x20
00000878  637820            arpl [bx+si+0x20],di
0000087B  2020              and [bx+si],ah
0000087D  2020              and [bx+si],ah
0000087F  2020              and [bx+si],ah
00000881  2020              and [bx+si],ah
00000883  2020              and [bx+si],ah
00000885  2020              and [bx+si],ah
00000887  2020              and [bx+si],ah
00000889  2020              and [bx+si],ah
0000088B  3B20              cmp sp,[bx+si]
0000088D  E382              jcxz 0x811
0000088F  BBE382            mov bx,0x82e3
00000892  AF                scasw
00000893  E382              jcxz 0x817
00000895  BFE8AA            mov di,0xaae8
00000898  AD                lodsw
00000899  E381              jcxz 0x81c
0000089B  BFE587            mov di,0x87e5
0000089E  BAE381            mov dx,0x81e3
000008A1  97                xchg ax,di
000008A2  E996A2            jmp 0xab3b
000008A5  E695              out 0x95,al
000008A7  B0E3              mov al,0xe3
000008A9  81AEE799BAE8      sub word [bp-0x6619],0xe8ba
000008AF  A18C0A            mov ax,[0xa8c]
000008B2  0A0A              or cl,[bp+si]
000008B4  2020              and [bx+si],ah
000008B6  2020              and [bx+si],ah
000008B8  2020              and [bx+si],ah
000008BA  2020              and [bx+si],ah
000008BC  636D70            arpl [di+0x70],bp
000008BF  2020              and [bx+si],ah
000008C1  2020              and [bx+si],ah
000008C3  206178            and [bx+di+0x78],ah
000008C6  202C              and [si],ch
000008C8  206278            and [bp+si+0x78],ah
000008CB  2020              and [bx+si],ah
000008CD  2020              and [bx+si],ah
000008CF  2020              and [bx+si],ah
000008D1  2020              and [bx+si],ah
000008D3  2020              and [bx+si],ah
000008D5  2020              and [bx+si],ah
000008D7  2020              and [bx+si],ah
000008D9  2020              and [bx+si],ah
000008DB  2020              and [bx+si],ah
000008DD  2020              and [bx+si],ah
000008DF  2020              and [bx+si],ah
000008E1  2020              and [bx+si],ah
000008E3  2020              and [bx+si],ah
000008E5  2020              and [bx+si],ah
000008E7  2020              and [bx+si],ah
000008E9  2020              and [bx+si],ah
000008EB  203B              and [bp+di],bh
000008ED  206966            and [bx+di+0x66],ch
000008F0  284158            sub [bx+di+0x58],al
000008F3  213D              and [di],di
000008F5  42                inc dx
000008F6  58                pop ax
000008F7  290A              sub [bp+si],cx
000008F9  2E3130            xor [cs:bx+si],si
000008FC  51                push cx
000008FD  3A20              cmp ah,[bx+si]
000008FF  2020              and [bx+si],ah
00000901  6A7A              push byte +0x7a
00000903  2020              and [bx+si],ah
00000905  2020              and [bx+si],ah
00000907  2020              and [bx+si],ah
00000909  2E3130            xor [cs:bx+si],si
0000090C  45                inc bp
0000090D  2020              and [bx+si],ah
0000090F  2020              and [bx+si],ah
00000911  2020              and [bx+si],ah
00000913  2020              and [bx+si],ah
00000915  2020              and [bx+si],ah
00000917  2020              and [bx+si],ah
00000919  2020              and [bx+si],ah
0000091B  2020              and [bx+si],ah
0000091D  2020              and [bx+si],ah
0000091F  2020              and [bx+si],ah
00000921  2020              and [bx+si],ah
00000923  2020              and [bx+si],ah
00000925  2020              and [bx+si],ah
00000927  2020              and [bx+si],ah
00000929  2020              and [bx+si],ah
0000092B  2020              and [bx+si],ah
0000092D  2020              and [bx+si],ah
0000092F  2020              and [bx+si],ah
00000931  3B20              cmp sp,[bx+si]
00000933  7B0A              jpo 0x93f
00000935  2E3130            xor [cs:bx+si],si
00000938  54                push sp
00000939  3A20              cmp ah,[bx+si]
0000093B  2020              and [bx+si],ah
0000093D  636465            arpl [si+0x65],sp
00000940  636C20            arpl [si+0x20],bp
00000943  2020              and [bx+si],ah
00000945  7075              jo 0x9bc
00000947  7473              jz 0x9bc
00000949  2C20              sub al,0x20
0000094B  2E653020          xor [gs:bx+si],ah
0000094F  2020              and [bx+si],ah
00000951  2020              and [bx+si],ah
00000953  2020              and [bx+si],ah
00000955  2020              and [bx+si],ah
00000957  2020              and [bx+si],ah
00000959  2020              and [bx+si],ah
0000095B  2020              and [bx+si],ah
0000095D  2020              and [bx+si],ah
0000095F  2020              and [bx+si],ah
00000961  2020              and [bx+si],ah
00000963  2020              and [bx+si],ah
00000965  2020              and [bx+si],ah
00000967  2020              and [bx+si],ah
00000969  2020              and [bx+si],ah
0000096B  2020              and [bx+si],ah
0000096D  3B20              cmp sp,[bx+si]
0000096F  7075              jo 0x9e6
00000971  7473              jz 0x9e6
00000973  282E6530          sub [0x3065],ch
00000977  293B              sub [bp+di],di
00000979  202F              and [bx],ch
0000097B  2F                das
0000097C  E383              jcxz 0x901
0000097E  A1E383            mov ax,[0x83e3]
00000981  83E382            and bx,byte -0x7e
00000984  BBE383            mov bx,0x83e3
00000987  BCE382            mov sp,0x82e3
0000098A  B80A20            mov ax,0x200a
0000098D  2020              and [bx+si],ah
0000098F  2020              and [bx+si],ah
00000991  2020              and [bx+si],ah
00000993  206361            and [bp+di+0x61],ah
00000996  6C                insb
00000997  6C                insb
00000998  2020              and [bx+si],ah
0000099A  2020              and [bx+si],ah
0000099C  7265              jc 0xa03
0000099E  626F6F            bound bp,[bx+0x6f]
000009A1  7420              jz 0x9c3
000009A3  2020              and [bx+si],ah
000009A5  2020              and [bx+si],ah
000009A7  2020              and [bx+si],ah
000009A9  2020              and [bx+si],ah
000009AB  2020              and [bx+si],ah
000009AD  2020              and [bx+si],ah
000009AF  2020              and [bx+si],ah
000009B1  2020              and [bx+si],ah
000009B3  2020              and [bx+si],ah
000009B5  2020              and [bx+si],ah
000009B7  2020              and [bx+si],ah
000009B9  2020              and [bx+si],ah
000009BB  2020              and [bx+si],ah
000009BD  2020              and [bx+si],ah
000009BF  2020              and [bx+si],ah
000009C1  2020              and [bx+si],ah
000009C3  203B              and [bp+di],bh
000009C5  207265            and [bp+si+0x65],dh
000009C8  626F6F            bound bp,[bx+0x6f]
000009CB  7428              jz 0x9f5
000009CD  293B              sub [bp+di],di
000009CF  2020              and [bx+si],ah
000009D1  2F                das
000009D2  2F                das
000009D3  E586              in ax,0x86
000009D5  8D                db 0x8d
000009D6  E8B5B7            call 0xc18e
000009D9  E58B              in ax,0x8b
000009DB  95                xchg ax,bp
000009DC  0A2E3130          or ch,[0x3031]
000009E0  45                inc bp
000009E1  3A20              cmp ah,[bx+si]
000009E3  2020              and [bx+si],ah
000009E5  2020              and [bx+si],ah
000009E7  2020              and [bx+si],ah
000009E9  2020              and [bx+si],ah
000009EB  2020              and [bx+si],ah
000009ED  2020              and [bx+si],ah
000009EF  2020              and [bx+si],ah
000009F1  2020              and [bx+si],ah
000009F3  2020              and [bx+si],ah
000009F5  2020              and [bx+si],ah
000009F7  2020              and [bx+si],ah
000009F9  2020              and [bx+si],ah
000009FB  2020              and [bx+si],ah
000009FD  2020              and [bx+si],ah
000009FF  2020              and [bx+si],ah
00000A01  2020              and [bx+si],ah
00000A03  2020              and [bx+si],ah
00000A05  2020              and [bx+si],ah
00000A07  2020              and [bx+si],ah
00000A09  2020              and [bx+si],ah
00000A0B  2020              and [bx+si],ah
00000A0D  2020              and [bx+si],ah
00000A0F  2020              and [bx+si],ah
00000A11  2020              and [bx+si],ah
00000A13  2020              and [bx+si],ah
00000A15  3B20              cmp sp,[bx+si]
00000A17  7D0A              jnl 0xa23
00000A19  0A20              or ah,[bx+si]
00000A1B  2020              and [bx+si],ah
00000A1D  2020              and [bx+si],ah
00000A1F  2020              and [bx+si],ah
00000A21  203B              and [bp+di],bh
00000A23  3B3B              cmp di,[bp+di]
00000A25  3B3B              cmp di,[bp+di]
00000A27  3B3B              cmp di,[bp+di]
00000A29  3B3B              cmp di,[bp+di]
00000A2B  3B3B              cmp di,[bp+di]
00000A2D  3B3B              cmp di,[bp+di]
00000A2F  3B3B              cmp di,[bp+di]
00000A31  3B3B              cmp di,[bp+di]
00000A33  3B3B              cmp di,[bp+di]
00000A35  3B3B              cmp di,[bp+di]
00000A37  3B3B              cmp di,[bp+di]
00000A39  3B3B              cmp di,[bp+di]
00000A3B  3B3B              cmp di,[bp+di]
00000A3D  3B3B              cmp di,[bp+di]
00000A3F  3B3B              cmp di,[bp+di]
00000A41  3B3B              cmp di,[bp+di]
00000A43  3B3B              cmp di,[bp+di]
00000A45  3B3B              cmp di,[bp+di]
00000A47  3B3B              cmp di,[bp+di]
00000A49  3B3B              cmp di,[bp+di]
00000A4B  3B3B              cmp di,[bp+di]
00000A4D  3B3B              cmp di,[bp+di]
00000A4F  3B3B              cmp di,[bp+di]
00000A51  3B3B              cmp di,[bp+di]
00000A53  0A20              or ah,[bx+si]
00000A55  2020              and [bx+si],ah
00000A57  2020              and [bx+si],ah
00000A59  2020              and [bx+si],ah
00000A5B  203B              and [bp+di],bh
00000A5D  20E6              and dh,ah
00000A5F  AC                lodsb
00000A60  A1E381            mov ax,[0x81e3]
00000A63  AE                scasb
00000A64  E382              jcxz 0x9e8
00000A66  B9E383            mov cx,0x83e3
00000A69  86E3              xchg ah,bl
00000A6B  83BCE382B8        cmp word [si-0x7d1d],byte -0x48
00000A70  E381              jcxz 0x9f3
00000A72  B8E7A7            mov ax,0xa7e7
00000A75  BBE8A1            mov bx,0xa1e8
00000A78  8C0A              mov [bp+si],cs
00000A7A  2020              and [bx+si],ah
00000A7C  2020              and [bx+si],ah
00000A7E  2020              and [bx+si],ah
00000A80  2020              and [bx+si],ah
00000A82  3B3B              cmp di,[bp+di]
00000A84  3B3B              cmp di,[bp+di]
00000A86  3B3B              cmp di,[bp+di]
00000A88  3B3B              cmp di,[bp+di]
00000A8A  3B3B              cmp di,[bp+di]
00000A8C  3B3B              cmp di,[bp+di]
00000A8E  3B3B              cmp di,[bp+di]
00000A90  3B3B              cmp di,[bp+di]
00000A92  3B3B              cmp di,[bp+di]
00000A94  3B3B              cmp di,[bp+di]
00000A96  3B3B              cmp di,[bp+di]
00000A98  3B3B              cmp di,[bp+di]
00000A9A  3B3B              cmp di,[bp+di]
00000A9C  3B3B              cmp di,[bp+di]
00000A9E  3B3B              cmp di,[bp+di]
00000AA0  3B3B              cmp di,[bp+di]
00000AA2  3B3B              cmp di,[bp+di]
00000AA4  3B3B              cmp di,[bp+di]
00000AA6  3B3B              cmp di,[bp+di]
00000AA8  3B3B              cmp di,[bp+di]
00000AAA  3B3B              cmp di,[bp+di]
00000AAC  3B3B              cmp di,[bp+di]
00000AAE  3B3B              cmp di,[bp+di]
00000AB0  3B3B              cmp di,[bp+di]
00000AB2  3B0A              cmp cx,[bp+si]
00000AB4  2020              and [bx+si],ah
00000AB6  2020              and [bx+si],ah
00000AB8  2020              and [bx+si],ah
00000ABA  2020              and [bx+si],ah
00000ABC  6A6D              push byte +0x6d
00000ABE  7020              jo 0xae0
00000AC0  2020              and [bx+si],ah
00000AC2  2020              and [bx+si],ah
00000AC4  7374              jnc 0xb3a
00000AC6  61                popa
00000AC7  67655F            gs a32 pop di
00000ACA  3220              xor ah,[bx+si]
00000ACC  2020              and [bx+si],ah
00000ACE  2020              and [bx+si],ah
00000AD0  2020              and [bx+si],ah
00000AD2  2020              and [bx+si],ah
00000AD4  2020              and [bx+si],ah
00000AD6  2020              and [bx+si],ah
00000AD8  2020              and [bx+si],ah
00000ADA  2020              and [bx+si],ah
00000ADC  2020              and [bx+si],ah
00000ADE  2020              and [bx+si],ah
00000AE0  2020              and [bx+si],ah
00000AE2  2020              and [bx+si],ah
00000AE4  2020              and [bx+si],ah
00000AE6  2020              and [bx+si],ah
00000AE8  2020              and [bx+si],ah
00000AEA  2020              and [bx+si],ah
00000AEC  3B20              cmp sp,[bx+si]
00000AEE  E383              jcxz 0xa73
00000AF0  96                xchg ax,si
00000AF1  E383              jcxz 0xa76
00000AF3  BCE383            mov sp,0x83e3
00000AF6  88E5              mov ch,ah
00000AF8  87A6E790          xchg sp,[bp-0x6f19]
00000AFC  86E3              xchg ah,bl
00000AFE  81AEE7ACACE4      sub word [bp-0x5319],0xe4ac
00000B04  BA8CE3            mov dx,0xe38c
00000B07  82                db 0x82
00000B08  B9E383            mov cx,0x83e3
00000B0B  86E3              xchg ah,bl
00000B0D  83BCE382B8        cmp word [si-0x7d1d],byte -0x48
00000B12  0A0A              or cl,[bp+si]
00000B14  2020              and [bx+si],ah
00000B16  2020              and [bx+si],ah
00000B18  2020              and [bx+si],ah
00000B1A  2020              and [bx+si],ah
00000B1C  3B3B              cmp di,[bp+di]
00000B1E  3B3B              cmp di,[bp+di]
00000B20  3B3B              cmp di,[bp+di]
00000B22  3B3B              cmp di,[bp+di]
00000B24  3B3B              cmp di,[bp+di]
00000B26  3B3B              cmp di,[bp+di]
00000B28  3B3B              cmp di,[bp+di]
00000B2A  3B3B              cmp di,[bp+di]
00000B2C  3B3B              cmp di,[bp+di]
00000B2E  3B3B              cmp di,[bp+di]
00000B30  3B3B              cmp di,[bp+di]
00000B32  3B3B              cmp di,[bp+di]
00000B34  3B3B              cmp di,[bp+di]
00000B36  3B3B              cmp di,[bp+di]
00000B38  3B3B              cmp di,[bp+di]
00000B3A  3B3B              cmp di,[bp+di]
00000B3C  3B3B              cmp di,[bp+di]
00000B3E  3B3B              cmp di,[bp+di]
00000B40  3B3B              cmp di,[bp+di]
00000B42  3B3B              cmp di,[bp+di]
00000B44  3B3B              cmp di,[bp+di]
00000B46  3B3B              cmp di,[bp+di]
00000B48  3B3B              cmp di,[bp+di]
00000B4A  3B3B              cmp di,[bp+di]
00000B4C  3B0A              cmp cx,[bp+si]
00000B4E  2020              and [bx+si],ah
00000B50  2020              and [bx+si],ah
00000B52  2020              and [bx+si],ah
00000B54  2020              and [bx+si],ah
00000B56  3B20              cmp sp,[bx+si]
00000B58  E383              jcxz 0xadd
00000B5A  87E3              xchg sp,bx
00000B5C  83BCE382BF        cmp word [si-0x7d1d],byte -0x41
00000B61  0A20              or ah,[bx+si]
00000B63  2020              and [bx+si],ah
00000B65  2020              and [bx+si],ah
00000B67  2020              and [bx+si],ah
00000B69  203B              and [bp+di],bh
00000B6B  3B3B              cmp di,[bp+di]
00000B6D  3B3B              cmp di,[bp+di]
00000B6F  3B3B              cmp di,[bp+di]
00000B71  3B3B              cmp di,[bp+di]
00000B73  3B3B              cmp di,[bp+di]
00000B75  3B3B              cmp di,[bp+di]
00000B77  3B3B              cmp di,[bp+di]
00000B79  3B3B              cmp di,[bp+di]
00000B7B  3B3B              cmp di,[bp+di]
00000B7D  3B3B              cmp di,[bp+di]
00000B7F  3B3B              cmp di,[bp+di]
00000B81  3B3B              cmp di,[bp+di]
00000B83  3B3B              cmp di,[bp+di]
00000B85  3B3B              cmp di,[bp+di]
00000B87  3B3B              cmp di,[bp+di]
00000B89  3B3B              cmp di,[bp+di]
00000B8B  3B3B              cmp di,[bp+di]
00000B8D  3B3B              cmp di,[bp+di]
00000B8F  3B3B              cmp di,[bp+di]
00000B91  3B3B              cmp di,[bp+di]
00000B93  3B3B              cmp di,[bp+di]
00000B95  3B3B              cmp di,[bp+di]
00000B97  3B3B              cmp di,[bp+di]
00000B99  3B3B              cmp di,[bp+di]
00000B9B  0A2E7330          or ch,[0x3073]
00000B9F  2020              and [bx+si],ah
00000BA1  2020              and [bx+si],ah
00000BA3  206462            and [si+0x62],ah
00000BA6  2020              and [bx+si],ah
00000BA8  22426F            and al,[bp+si+0x6f]
00000BAB  6F                outsw
00000BAC  7469              jz 0xc17
00000BAE  6E                outsb
00000BAF  672E2E2E2220      and ah,[cs:eax]
00000BB5  2C20              sub al,0x20
00000BB7  307830            xor [bx+si+0x30],bh
00000BBA  41                inc cx
00000BBB  202C              and [si],ch
00000BBD  2030              and [bx+si],dh
00000BBF  7830              js 0xbf1
00000BC1  44                inc sp
00000BC2  202C              and [si],ch
00000BC4  2030              and [bx+si],dh
00000BC6  2020              and [bx+si],ah
00000BC8  2020              and [bx+si],ah
00000BCA  2020              and [bx+si],ah
00000BCC  2020              and [bx+si],ah
00000BCE  2020              and [bx+si],ah
00000BD0  2020              and [bx+si],ah
00000BD2  2020              and [bx+si],ah
00000BD4  3B0A              cmp cx,[bp+si]
00000BD6  2E653020          xor [gs:bx+si],ah
00000BDA  2020              and [bx+si],ah
00000BDC  2020              and [bx+si],ah
00000BDE  646220            bound sp,[fs:bx+si]
00000BE1  2022              and [bp+si],ah
00000BE3  45                inc bp
00000BE4  7272              jc 0xc58
00000BE6  6F                outsw
00000BE7  723A              jc 0xc23
00000BE9  7365              jnc 0xc50
00000BEB  63746F            arpl [si+0x6f],si
00000BEE  7220              jc 0xc10
00000BF0  7265              jc 0xc57
00000BF2  61                popa
00000BF3  64222C            and ch,[fs:si]
00000BF6  2030              and [bx+si],dh
00000BF8  2020              and [bx+si],ah
00000BFA  2020              and [bx+si],ah
00000BFC  2020              and [bx+si],ah
00000BFE  2020              and [bx+si],ah
00000C00  2020              and [bx+si],ah
00000C02  2020              and [bx+si],ah
00000C04  2020              and [bx+si],ah
00000C06  2020              and [bx+si],ah
00000C08  2020              and [bx+si],ah
00000C0A  2020              and [bx+si],ah
00000C0C  2020              and [bx+si],ah
00000C0E  3B0A              cmp cx,[bp+si]
00000C10  0A20              or ah,[bx+si]
00000C12  2020              and [bx+si],ah
00000C14  2020              and [bx+si],ah
00000C16  2020              and [bx+si],ah
00000C18  20616C            and [bx+di+0x6c],ah
00000C1B  69676E2020        imul sp,[bx+0x6e],word 0x2020
00000C20  2020              and [bx+si],ah
00000C22  2020              and [bx+si],ah
00000C24  2032              and [bp+si],dh
00000C26  2020              and [bx+si],ah
00000C28  2020              and [bx+si],ah
00000C2A  2020              and [bx+si],ah
00000C2C  202C              and [si],ch
00000C2E  206462            and [si+0x62],ah
00000C31  2030              and [bx+si],dh
00000C33  2020              and [bx+si],ah
00000C35  2020              and [bx+si],ah
00000C37  2020              and [bx+si],ah
00000C39  2020              and [bx+si],ah
00000C3B  2020              and [bx+si],ah
00000C3D  2020              and [bx+si],ah
00000C3F  2020              and [bx+si],ah
00000C41  2020              and [bx+si],ah
00000C43  2020              and [bx+si],ah
00000C45  2020              and [bx+si],ah
00000C47  2020              and [bx+si],ah
00000C49  3B0A              cmp cx,[bp+si]
00000C4B  42                inc dx
00000C4C  4F                dec di
00000C4D  4F                dec di
00000C4E  54                push sp
00000C4F  3A0A              cmp cl,[bp+si]
00000C51  2020              and [bx+si],ah
00000C53  2020              and [bx+si],ah
00000C55  2020              and [bx+si],ah
00000C57  2020              and [bx+si],ah
00000C59  6973747275        imul si,[bp+di+0x74],word 0x7572
00000C5E  6320              arpl [bx+si],sp
00000C60  206472            and [si+0x72],ah
00000C63  6976650A20        imul si,[bp+0x65],word 0x200a
00000C68  2020              and [bx+si],ah
00000C6A  2020              and [bx+si],ah
00000C6C  2020              and [bx+si],ah
00000C6E  2020              and [bx+si],ah
00000C70  2020              and [bx+si],ah
00000C72  206174            and [bx+di+0x74],ah
00000C75  206472            and [si+0x72],ah
00000C78  6976652E6E        imul si,[bp+0x65],word 0x6e2e
00000C7D  6F                outsw
00000C7E  2C20              sub al,0x20
00000C80  2020              and [bx+si],ah
00000C82  206477            and [si+0x77],ah
00000C85  2020              and [bx+si],ah
00000C87  3020              xor [bx+si],ah
00000C89  2020              and [bx+si],ah
00000C8B  2020              and [bx+si],ah
00000C8D  2020              and [bx+si],ah
00000C8F  2020              and [bx+si],ah
00000C91  2020              and [bx+si],ah
00000C93  2020              and [bx+si],ah
00000C95  2020              and [bx+si],ah
00000C97  2020              and [bx+si],ah
00000C99  2020              and [bx+si],ah
00000C9B  2020              and [bx+si],ah
00000C9D  2020              and [bx+si],ah
00000C9F  3B20              cmp sp,[bx+si]
00000CA1  E383              jcxz 0xc26
00000CA3  89E3              mov bx,sp
00000CA5  83A9E382A4        sub word [bx+di-0x7d1d],byte -0x5c
00000CAA  E383              jcxz 0xc2f
00000CAC  96                xchg ax,si
00000CAD  E795              out 0x95,ax
00000CAF  AA                stosb
00000CB0  E58F              in ax,0x8f
00000CB2  B70A              mov bh,0xa
00000CB4  2020              and [bx+si],ah
00000CB6  2020              and [bx+si],ah
00000CB8  2020              and [bx+si],ah
00000CBA  2020              and [bx+si],ah
00000CBC  2020              and [bx+si],ah
00000CBE  2020              and [bx+si],ah
00000CC0  61                popa
00000CC1  7420              jz 0xce3
00000CC3  647269            fs jc 0xd2f
00000CC6  7665              jna 0xd2d
00000CC8  2E63796C          arpl [cs:bx+di+0x6c],di
00000CCC  6E                outsb
00000CCD  2C20              sub al,0x20
00000CCF  206477            and [si+0x77],ah
00000CD2  2020              and [bx+si],ah
00000CD4  3020              xor [bx+si],ah
00000CD6  2020              and [bx+si],ah
00000CD8  2020              and [bx+si],ah
00000CDA  2020              and [bx+si],ah
00000CDC  2020              and [bx+si],ah
00000CDE  2020              and [bx+si],ah
00000CE0  2020              and [bx+si],ah
00000CE2  2020              and [bx+si],ah
00000CE4  2020              and [bx+si],ah
00000CE6  2020              and [bx+si],ah
00000CE8  2020              and [bx+si],ah
00000CEA  2020              and [bx+si],ah
00000CEC  3B20              cmp sp,[bx+si]
00000CEE  53                push bx
00000CEF  3AE3              cmp ah,bl
00000CF1  82                db 0x82
00000CF2  B7E3              mov bh,0xe3
00000CF4  83AAE383B3        sub word [bp+si-0x7c1d],byte -0x4d
00000CF9  E383              jcxz 0xc7e
00000CFB  80E383            and bl,0x83
00000CFE  BC0A20            mov sp,0x200a
00000D01  2020              and [bx+si],ah
00000D03  2020              and [bx+si],ah
00000D05  2020              and [bx+si],ah
00000D07  2020              and [bx+si],ah
00000D09  2020              and [bx+si],ah
00000D0B  206174            and [bx+di+0x74],ah
00000D0E  206472            and [si+0x72],ah
00000D11  6976652E68        imul si,[bp+0x65],word 0x682e
00000D16  6561              gs popa
00000D18  642C20            fs sub al,0x20
00000D1B  206477            and [si+0x77],ah
00000D1E  2020              and [bx+si],ah
00000D20  3020              xor [bx+si],ah
00000D22  2020              and [bx+si],ah
00000D24  2020              and [bx+si],ah
00000D26  2020              and [bx+si],ah
00000D28  2020              and [bx+si],ah
00000D2A  2020              and [bx+si],ah
00000D2C  2020              and [bx+si],ah
00000D2E  2020              and [bx+si],ah
00000D30  2020              and [bx+si],ah
00000D32  2020              and [bx+si],ah
00000D34  2020              and [bx+si],ah
00000D36  2020              and [bx+si],ah
00000D38  3B20              cmp sp,[bx+si]
00000D3A  48                dec ax
00000D3B  3AE3              cmp ah,bl
00000D3D  8398E38383        sbb word [bx+si-0x7c1d],byte -0x7d
00000D42  E383              jcxz 0xcc7
00000D44  890A              mov [bp+si],cx
00000D46  2020              and [bx+si],ah
00000D48  2020              and [bx+si],ah
00000D4A  2020              and [bx+si],ah
00000D4C  2020              and [bx+si],ah
00000D4E  2020              and [bx+si],ah
00000D50  2020              and [bx+si],ah
00000D52  61                popa
00000D53  7420              jz 0xd75
00000D55  647269            fs jc 0xdc1
00000D58  7665              jna 0xdbf
00000D5A  2E7365            cs jnc 0xdc2
00000D5D  63742C            arpl [si+0x2c],si
00000D60  2020              and [bx+si],ah
00000D62  647720            fs ja 0xd85
00000D65  2032              and [bp+si],dh
00000D67  2020              and [bx+si],ah
00000D69  2020              and [bx+si],ah
00000D6B  2020              and [bx+si],ah
00000D6D  2020              and [bx+si],ah
00000D6F  2020              and [bx+si],ah
00000D71  2020              and [bx+si],ah
00000D73  2020              and [bx+si],ah
00000D75  2020              and [bx+si],ah
00000D77  2020              and [bx+si],ah
00000D79  2020              and [bx+si],ah
00000D7B  2020              and [bx+si],ah
00000D7D  203B              and [bp+di],bh
00000D7F  20533A            and [bp+di+0x3a],dl
00000D82  E382              jcxz 0xd06
00000D84  BBE382            mov bx,0x82e3
00000D87  AF                scasw
00000D88  E382              jcxz 0xd0c
00000D8A  BF0A20            mov di,0x200a
00000D8D  2020              and [bx+si],ah
00000D8F  2020              and [bx+si],ah
00000D91  2020              and [bx+si],ah
00000D93  206965            and [bx+di+0x65],ch
00000D96  6E                outsb
00000D97  640A0A            or cl,[fs:bp+si]
00000D9A  2020              and [bx+si],ah
00000D9C  2020              and [bx+si],ah
00000D9E  3B3B              cmp di,[bp+di]
00000DA0  3B3B              cmp di,[bp+di]
00000DA2  3B3B              cmp di,[bp+di]
00000DA4  3B3B              cmp di,[bp+di]
00000DA6  3B3B              cmp di,[bp+di]
00000DA8  3B3B              cmp di,[bp+di]
00000DAA  3B3B              cmp di,[bp+di]
00000DAC  3B3B              cmp di,[bp+di]
00000DAE  3B3B              cmp di,[bp+di]
00000DB0  3B3B              cmp di,[bp+di]
00000DB2  3B3B              cmp di,[bp+di]
00000DB4  3B3B              cmp di,[bp+di]
00000DB6  3B3B              cmp di,[bp+di]
00000DB8  3B3B              cmp di,[bp+di]
00000DBA  3B3B              cmp di,[bp+di]
00000DBC  3B3B              cmp di,[bp+di]
00000DBE  3B3B              cmp di,[bp+di]
00000DC0  3B3B              cmp di,[bp+di]
00000DC2  3B3B              cmp di,[bp+di]
00000DC4  3B3B              cmp di,[bp+di]
00000DC6  3B3B              cmp di,[bp+di]
00000DC8  3B3B              cmp di,[bp+di]
00000DCA  3B3B              cmp di,[bp+di]
00000DCC  3B3B              cmp di,[bp+di]
00000DCE  3B3B              cmp di,[bp+di]
00000DD0  3B3B              cmp di,[bp+di]
00000DD2  3B0A              cmp cx,[bp+si]
00000DD4  2020              and [bx+si],ah
00000DD6  2020              and [bx+si],ah
00000DD8  3B20              cmp sp,[bx+si]
00000DDA  E383              jcxz 0xd5f
00000DDC  A2E382            mov [0x82e3],al
00000DDF  B8E383            mov ax,0x83e3
00000DE2  A5                movsw
00000DE3  E383              jcxz 0xd68
00000DE5  BCE383            mov sp,0x83e3
00000DE8  AB                stosw
00000DE9  0A20              or ah,[bx+si]
00000DEB  2020              and [bx+si],ah
00000DED  203B              and [bp+di],bh
00000DEF  3B3B              cmp di,[bp+di]
00000DF1  3B3B              cmp di,[bp+di]
00000DF3  3B3B              cmp di,[bp+di]
00000DF5  3B3B              cmp di,[bp+di]
00000DF7  3B3B              cmp di,[bp+di]
00000DF9  3B3B              cmp di,[bp+di]
00000DFB  3B3B              cmp di,[bp+di]
00000DFD  3B3B              cmp di,[bp+di]
00000DFF  3B3B              cmp di,[bp+di]
00000E01  3B3B              cmp di,[bp+di]
00000E03  3B3B              cmp di,[bp+di]
00000E05  3B3B              cmp di,[bp+di]
00000E07  3B3B              cmp di,[bp+di]
00000E09  3B3B              cmp di,[bp+di]
00000E0B  3B3B              cmp di,[bp+di]
00000E0D  3B3B              cmp di,[bp+di]
00000E0F  3B3B              cmp di,[bp+di]
00000E11  3B3B              cmp di,[bp+di]
00000E13  3B3B              cmp di,[bp+di]
00000E15  3B3B              cmp di,[bp+di]
00000E17  3B3B              cmp di,[bp+di]
00000E19  3B3B              cmp di,[bp+di]
00000E1B  3B3B              cmp di,[bp+di]
00000E1D  3B3B              cmp di,[bp+di]
00000E1F  3B3B              cmp di,[bp+di]
00000E21  3B3B              cmp di,[bp+di]
00000E23  0A20              or ah,[bx+si]
00000E25  2020              and [bx+si],ah
00000E27  2025              and [di],ah
00000E29  696E636C75        imul bp,[bp+0x63],word 0x756c
00000E2E  64652022          and [gs:bp+si],ah
00000E32  2F                das
00000E33  686F6D            push word 0x6d6f
00000E36  652F              gs das
00000E38  6D                insw
00000E39  386B75            cmp [bp+di+0x75],ch
00000E3C  2F                das
00000E3D  7072              jo 0xeb1
00000E3F  6F                outsw
00000E40  672F              a32 das
00000E42  7372              jnc 0xeb6
00000E44  632F              arpl [bx],bp
00000E46  6D                insw
00000E47  6F                outsw
00000E48  64756C            fs jnz 0xeb7
00000E4B  65732F            gs jnc 0xe7d
00000E4E  7265              jc 0xeb5
00000E50  61                popa
00000E51  6C                insb
00000E52  2F                das
00000E53  7075              jo 0xeca
00000E55  7473              jz 0xeca
00000E57  2E61              cs popa
00000E59  736D              jnc 0xec8
00000E5B  220A              and cl,[bp+si]
00000E5D  2020              and [bx+si],ah
00000E5F  2020              and [bx+si],ah
00000E61  25696E            and ax,0x6e69
00000E64  636C75            arpl [si+0x75],bp
00000E67  64652022          and [gs:bp+si],ah
00000E6B  2F                das
00000E6C  686F6D            push word 0x6d6f
00000E6F  652F              gs das
00000E71  6D                insw
00000E72  386B75            cmp [bp+di+0x75],ch
00000E75  2F                das
00000E76  7072              jo 0xeea
00000E78  6F                outsw
00000E79  672F              a32 das
00000E7B  7372              jnc 0xeef
00000E7D  632F              arpl [bx],bp
00000E7F  6D                insw
00000E80  6F                outsw
00000E81  64756C            fs jnz 0xef0
00000E84  65732F            gs jnc 0xeb6
00000E87  7265              jc 0xeee
00000E89  61                popa
00000E8A  6C                insb
00000E8B  2F                das
00000E8C  7265              jc 0xef3
00000E8E  626F6F            bound bp,[bx+0x6f]
00000E91  742E              jz 0xec1
00000E93  61                popa
00000E94  736D              jnc 0xf03
00000E96  220A              and cl,[bp+si]
00000E98  2020              and [bx+si],ah
00000E9A  2020              and [bx+si],ah
00000E9C  25696E            and ax,0x6e69
00000E9F  636C75            arpl [si+0x75],bp
00000EA2  64652022          and [gs:bp+si],ah
00000EA6  2F                das
00000EA7  686F6D            push word 0x6d6f
00000EAA  652F              gs das
00000EAC  6D                insw
00000EAD  386B75            cmp [bp+di+0x75],ch
00000EB0  2F                das
00000EB1  7072              jo 0xf25
00000EB3  6F                outsw
00000EB4  672F              a32 das
00000EB6  7372              jnc 0xf2a
00000EB8  632F              arpl [bx],bp
00000EBA  6D                insw
00000EBB  6F                outsw
00000EBC  64756C            fs jnz 0xf2b
00000EBF  65732F            gs jnc 0xef1
00000EC2  7265              jc 0xf29
00000EC4  61                popa
00000EC5  6C                insb
00000EC6  2F                das
00000EC7  7265              jc 0xf2e
00000EC9  61                popa
00000ECA  645F              fs pop di
00000ECC  636873            arpl [bx+si+0x73],bp
00000ECF  2E61              cs popa
00000ED1  736D              jnc 0xf40
00000ED3  220A              and cl,[bp+si]
00000ED5  0A20              or ah,[bx+si]
00000ED7  2020              and [bx+si],ah
00000ED9  203B              and [bp+di],bh
00000EDB  3B3B              cmp di,[bp+di]
00000EDD  3B3B              cmp di,[bp+di]
00000EDF  3B3B              cmp di,[bp+di]
00000EE1  3B3B              cmp di,[bp+di]
00000EE3  3B3B              cmp di,[bp+di]
00000EE5  3B3B              cmp di,[bp+di]
00000EE7  3B3B              cmp di,[bp+di]
00000EE9  3B3B              cmp di,[bp+di]
00000EEB  3B3B              cmp di,[bp+di]
00000EED  3B3B              cmp di,[bp+di]
00000EEF  3B3B              cmp di,[bp+di]
00000EF1  3B3B              cmp di,[bp+di]
00000EF3  3B3B              cmp di,[bp+di]
00000EF5  3B3B              cmp di,[bp+di]
00000EF7  3B3B              cmp di,[bp+di]
00000EF9  3B3B              cmp di,[bp+di]
00000EFB  3B3B              cmp di,[bp+di]
00000EFD  3B3B              cmp di,[bp+di]
00000EFF  3B3B              cmp di,[bp+di]
00000F01  3B3B              cmp di,[bp+di]
00000F03  3B3B              cmp di,[bp+di]
00000F05  3B3B              cmp di,[bp+di]
00000F07  3B3B              cmp di,[bp+di]
00000F09  3B3B              cmp di,[bp+di]
00000F0B  3B3B              cmp di,[bp+di]
00000F0D  3B3B              cmp di,[bp+di]
00000F0F  0A20              or ah,[bx+si]
00000F11  2020              and [bx+si],ah
00000F13  203B              and [bp+di],bh
00000F15  20E3              and bl,ah
00000F17  8396E383BC        adc word [bp-0x7c1d],byte -0x44
00000F1C  E383              jcxz 0xea1
00000F1E  88E3              mov bl,ah
00000F20  8395E383A9        adc word [di-0x7c1d],byte -0x57
00000F25  E382              jcxz 0xea9
00000F27  B0E3              mov al,0xe3
00000F29  81AEE8A8ADE5      sub word [bp-0x5718],0xe5ad
00000F2F  AE                scasb
00000F30  9A2028E585        call 0x85e5:0x2820
00000F35  88E9              mov cl,ch
00000F37  A0AD35            mov al,[0x35ad]
00000F3A  3132              xor [bp+si],si
00000F3C  E383              jcxz 0xec1
00000F3E  90                nop
00000F3F  E382              jcxz 0xec3
00000F41  A4                movsb
00000F42  E383              jcxz 0xec7
00000F44  88E3              mov bl,ah
00000F46  81AEE7B582E4      sub word [bp-0x4a19],0xe482
00000F4C  BA8629            mov dx,0x2986
00000F4F  0A20              or ah,[bx+si]
00000F51  2020              and [bx+si],ah
00000F53  203B              and [bp+di],bh
00000F55  3B3B              cmp di,[bp+di]
00000F57  3B3B              cmp di,[bp+di]
00000F59  3B3B              cmp di,[bp+di]
00000F5B  3B3B              cmp di,[bp+di]
00000F5D  3B3B              cmp di,[bp+di]
00000F5F  3B3B              cmp di,[bp+di]
00000F61  3B3B              cmp di,[bp+di]
00000F63  3B3B              cmp di,[bp+di]
00000F65  3B3B              cmp di,[bp+di]
00000F67  3B3B              cmp di,[bp+di]
00000F69  3B3B              cmp di,[bp+di]
00000F6B  3B3B              cmp di,[bp+di]
00000F6D  3B703B            cmp si,[bx+si+0x3b]
00000F70  3B3B              cmp di,[bp+di]
00000F72  3B3B              cmp di,[bp+di]
00000F74  3B3B              cmp di,[bp+di]
00000F76  3B3B              cmp di,[bp+di]
00000F78  3B3B              cmp di,[bp+di]
00000F7A  3B3B              cmp di,[bp+di]
00000F7C  3B3B              cmp di,[bp+di]
00000F7E  3B3B              cmp di,[bp+di]
00000F80  3B3B              cmp di,[bp+di]
00000F82  3B3B              cmp di,[bp+di]
00000F84  3B3B              cmp di,[bp+di]
00000F86  3B3B              cmp di,[bp+di]
00000F88  3B0A              cmp cx,[bp+si]
00000F8A  2020              and [bx+si],ah
00000F8C  2020              and [bx+si],ah
00000F8E  2020              and [bx+si],ah
00000F90  2020              and [bx+si],ah
00000F92  7469              jz 0xffd
00000F94  6D                insw
00000F95  657320            gs jnc 0xfb8
00000F98  353130            xor ax,0x3031
00000F9B  202D              and [di],ch
00000F9D  2028              and [bx+si],ch
00000F9F  2420              and al,0x20
00000FA1  2D2024            sub ax,0x2420
00000FA4  2429              and al,0x29
00000FA6  206462            and [si+0x62],ah
00000FA9  2030              and [bx+si],dh
00000FAB  7830              js 0xfdd
00000FAD  3020              xor [bx+si],ah
00000FAF  2020              and [bx+si],ah
00000FB1  2020              and [bx+si],ah
00000FB3  2020              and [bx+si],ah
00000FB5  2020              and [bx+si],ah
00000FB7  2020              and [bx+si],ah
00000FB9  2020              and [bx+si],ah
00000FBB  2020              and [bx+si],ah
00000FBD  2020              and [bx+si],ah
00000FBF  2020              and [bx+si],ah
00000FC1  203B              and [bp+di],bh
00000FC3  204950            and [bx+di+0x50],cl
00000FC6  4C                dec sp
00000FC7  E9A098            jmp 0xa86a
00000FCA  E59F              in ax,0x9f
00000FCC  9F                lahf
00000FCD  E382              jcxz 0xf51
00000FCF  92                xchg ax,dx
00000FD0  E6B5              out 0xb5,al
00000FD2  B8E381            mov ax,0x81e3
00000FD5  99                cwd
00000FD6  0A20              or ah,[bx+si]
00000FD8  2020              and [bx+si],ah
00000FDA  2020              and [bx+si],ah
00000FDC  2020              and [bx+si],ah
00000FDE  206462            and [si+0x62],ah
00000FE1  2020              and [bx+si],ah
00000FE3  2020              and [bx+si],ah
00000FE5  2020              and [bx+si],ah
00000FE7  307835            xor [bx+si+0x35],bh
00000FEA  35202C            xor ax,0x2c20
00000FED  2030              and [bx+si],dh
00000FEF  7841              js 0x1032
00000FF1  41                inc cx
00000FF2  2020              and [bx+si],ah
00000FF4  2020              and [bx+si],ah
00000FF6  2020              and [bx+si],ah
00000FF8  2020              and [bx+si],ah
00000FFA  2020              and [bx+si],ah
00000FFC  2020              and [bx+si],ah
00000FFE  2020              and [bx+si],ah
00001000  2020              and [bx+si],ah
00001002  2020              and [bx+si],ah
00001004  2020              and [bx+si],ah
00001006  2020              and [bx+si],ah
00001008  2020              and [bx+si],ah
0000100A  2020              and [bx+si],ah
0000100C  2020              and [bx+si],ah
0000100E  203B              and [bp+di],bh
00001010  2030              and [bx+si],dh
00001012  7835              js 0x1049
00001014  352030            xor ax,0x3020
00001017  7841              js 0x105a
00001019  41                inc cx
0000101A  0A20              or ah,[bx+si]
0000101C  2020              and [bx+si],ah
0000101E  203B              and [bp+di],bh
00001020  3B3B              cmp di,[bp+di]
00001022  3B3B              cmp di,[bp+di]
00001024  3B3B              cmp di,[bp+di]
00001026  3B3B              cmp di,[bp+di]
00001028  3B3B              cmp di,[bp+di]
0000102A  3B3B              cmp di,[bp+di]
0000102C  3B3B              cmp di,[bp+di]
0000102E  3B3B              cmp di,[bp+di]
00001030  3B3B              cmp di,[bp+di]
00001032  3B3B              cmp di,[bp+di]
00001034  3B3B              cmp di,[bp+di]
00001036  3B3B              cmp di,[bp+di]
00001038  3B3B              cmp di,[bp+di]
0000103A  3B3B              cmp di,[bp+di]
0000103C  3B3B              cmp di,[bp+di]
0000103E  3B3B              cmp di,[bp+di]
00001040  3B3B              cmp di,[bp+di]
00001042  3B3B              cmp di,[bp+di]
00001044  3B3B              cmp di,[bp+di]
00001046  3B3B              cmp di,[bp+di]
00001048  3B3B              cmp di,[bp+di]
0000104A  3B3B              cmp di,[bp+di]
0000104C  3B3B              cmp di,[bp+di]
0000104E  3B3B              cmp di,[bp+di]
00001050  3B3B              cmp di,[bp+di]
00001052  3B3B              cmp di,[bp+di]
00001054  0A20              or ah,[bx+si]
00001056  2020              and [bx+si],ah
00001058  203B              and [bp+di],bh
0000105A  20E3              and bl,ah
0000105C  83A2E382B8        and word [bp+si-0x7d1d],byte -0x48
00001061  E383              jcxz 0xfe6
00001063  A5                movsw
00001064  E383              jcxz 0xfe9
00001066  BCE383            mov sp,0x83e3
00001069  AB                stosw
0000106A  2028              and [bx+si],ch
0000106C  E585              in ax,0x85
0000106E  88E9              mov cl,ch
00001070  A0AD35            mov al,[0x35ad]
00001073  3132              xor [bp+si],si
00001075  E383              jcxz 0xffa
00001077  90                nop
00001078  E382              jcxz 0xffc
0000107A  A4                movsb
0000107B  E383              jcxz 0x1000
0000107D  88E4              mov ah,ah
0000107F  BBA5E9            mov bx,0xe9a5
00001082  99                cwd
00001083  8D                db 0x8d
00001084  E381              jcxz 0x1007
00001086  AB                stosw
00001087  E9858D            jmp 0x9e0f
0000108A  E7BD              out 0xbd,ax
0000108C  AE                scasb
0000108D  290A              sub [bp+si],cx
0000108F  2020              and [bx+si],ah
00001091  2020              and [bx+si],ah
00001093  3B3B              cmp di,[bp+di]
00001095  3B3B              cmp di,[bp+di]
00001097  3B3B              cmp di,[bp+di]
00001099  3B3B              cmp di,[bp+di]
0000109B  3B3B              cmp di,[bp+di]
0000109D  3B3B              cmp di,[bp+di]
0000109F  3B3B              cmp di,[bp+di]
000010A1  3B3B              cmp di,[bp+di]
000010A3  3B3B              cmp di,[bp+di]
000010A5  3B3B              cmp di,[bp+di]
000010A7  3B3B              cmp di,[bp+di]
000010A9  3B3B              cmp di,[bp+di]
000010AB  3B3B              cmp di,[bp+di]
000010AD  3B3B              cmp di,[bp+di]
000010AF  3B3B              cmp di,[bp+di]
000010B1  3B3B              cmp di,[bp+di]
000010B3  3B3B              cmp di,[bp+di]
000010B5  3B3B              cmp di,[bp+di]
000010B7  3B3B              cmp di,[bp+di]
000010B9  3B3B              cmp di,[bp+di]
000010BB  3B3B              cmp di,[bp+di]
000010BD  3B3B              cmp di,[bp+di]
000010BF  3B3B              cmp di,[bp+di]
000010C1  3B3B              cmp di,[bp+di]
000010C3  3B3B              cmp di,[bp+di]
000010C5  3B3B              cmp di,[bp+di]
000010C7  3B0A              cmp cx,[bp+si]
000010C9  2020              and [bx+si],ah
000010CB  2020              and [bx+si],ah
000010CD  25696E            and ax,0x6e69
000010D0  636C75            arpl [si+0x75],bp
000010D3  64652022          and [gs:bp+si],ah
000010D7  2F                das
000010D8  686F6D            push word 0x6d6f
000010DB  652F              gs das
000010DD  6D                insw
000010DE  386B75            cmp [bp+di+0x75],ch
000010E1  2F                das
000010E2  7072              jo 0x1156
000010E4  6F                outsw
000010E5  672F              a32 das
000010E7  7372              jnc 0x115b
000010E9  632F              arpl [bx],bp
000010EB  6D                insw
000010EC  6F                outsw
000010ED  64756C            fs jnz 0x115c
000010F0  65732F            gs jnc 0x1122
000010F3  7265              jc 0x115a
000010F5  61                popa
000010F6  6C                insb
000010F7  2F                das
000010F8  69746F612E        imul si,[si+0x6f],word 0x2e61
000010FD  61                popa
000010FE  736D              jnc 0x116d
00001100  220A              and cl,[bp+si]
00001102  2020              and [bx+si],ah
00001104  2020              and [bx+si],ah
00001106  25696E            and ax,0x6e69
00001109  636C75            arpl [si+0x75],bp
0000110C  64652022          and [gs:bp+si],ah
00001110  2F                das
00001111  686F6D            push word 0x6d6f
00001114  652F              gs das
00001116  6D                insw
00001117  386B75            cmp [bp+di+0x75],ch
0000111A  2F                das
0000111B  7072              jo 0x118f
0000111D  6F                outsw
0000111E  672F              a32 das
00001120  7372              jnc 0x1194
00001122  632F              arpl [bx],bp
00001124  6D                insw
00001125  6F                outsw
00001126  64756C            fs jnz 0x1195
00001129  65732F            gs jnc 0x115b
0000112C  7265              jc 0x1193
0000112E  61                popa
0000112F  6C                insb
00001130  2F                das
00001131  6765745F          gs jz 0x1194
00001135  647269            fs jc 0x11a1
00001138  7665              jna 0x119f
0000113A  5F                pop di
0000113B  7061              jo 0x119e
0000113D  7261              jc 0x11a0
0000113F  6D                insw
00001140  2E61              cs popa
00001142  736D              jnc 0x11b1
00001144  220A              and cl,[bp+si]
00001146  0A20              or ah,[bx+si]
00001148  2020              and [bx+si],ah
0000114A  203B              and [bp+di],bh
0000114C  3B3B              cmp di,[bp+di]
0000114E  3B3B              cmp di,[bp+di]
00001150  3B3B              cmp di,[bp+di]
00001152  3B3B              cmp di,[bp+di]
00001154  3B3B              cmp di,[bp+di]
00001156  3B3B              cmp di,[bp+di]
00001158  3B3B              cmp di,[bp+di]
0000115A  3B3B              cmp di,[bp+di]
0000115C  3B3B              cmp di,[bp+di]
0000115E  3B3B              cmp di,[bp+di]
00001160  3B3B              cmp di,[bp+di]
00001162  3B3B              cmp di,[bp+di]
00001164  3B3B              cmp di,[bp+di]
00001166  3B3B              cmp di,[bp+di]
00001168  3B3B              cmp di,[bp+di]
0000116A  3B3B              cmp di,[bp+di]
0000116C  3B3B              cmp di,[bp+di]
0000116E  3B3B              cmp di,[bp+di]
00001170  3B3B              cmp di,[bp+di]
00001172  3B3B              cmp di,[bp+di]
00001174  3B3B              cmp di,[bp+di]
00001176  3B3B              cmp di,[bp+di]
00001178  3B3B              cmp di,[bp+di]
0000117A  3B3B              cmp di,[bp+di]
0000117C  3B3B              cmp di,[bp+di]
0000117E  3B3B              cmp di,[bp+di]
00001180  0A20              or ah,[bx+si]
00001182  2020              and [bx+si],ah
00001184  203B              and [bp+di],bh
00001186  20E3              and bl,ah
00001188  8396E383BC        adc word [bp-0x7c1d],byte -0x44
0000118D  E383              jcxz 0x1112
0000118F  88E3              mov bl,ah
00001191  8397E383AD        adc word [bx-0x7c1d],byte -0x53
00001196  E382              jcxz 0x111a
00001198  B0E3              mov al,0xe3
0000119A  83A9E383A0        sub word [bx+di-0x7c1d],byte -0x60
0000119F  E381              jcxz 0x1122
000011A1  AE                scasb
000011A2  E7AC              out 0xac,ax
000011A4  AC                lodsb
000011A5  E4BA              in al,0xba
000011A7  8CE3              mov bx,fs
000011A9  82                db 0x82
000011AA  B9E383            mov cx,0x83e3
000011AD  86E3              xchg ah,bl
000011AF  83BCE382B8        cmp word [si-0x7d1d],byte -0x48
000011B4  20E2              and dl,ah
000011B6  96                xchg ax,si
000011B7  BD0A20            mov bp,0x200a
000011BA  2020              and [bx+si],ah
000011BC  203B              and [bp+di],bh
000011BE  3B3B              cmp di,[bp+di]
000011C0  3B3B              cmp di,[bp+di]
000011C2  3B3B              cmp di,[bp+di]
000011C4  3B3B              cmp di,[bp+di]
000011C6  3B3B              cmp di,[bp+di]
000011C8  3B3B              cmp di,[bp+di]
000011CA  3B3B              cmp di,[bp+di]
000011CC  3B3B              cmp di,[bp+di]
000011CE  3B3B              cmp di,[bp+di]
000011D0  3B3B              cmp di,[bp+di]
000011D2  3B3B              cmp di,[bp+di]
000011D4  3B3B              cmp di,[bp+di]
000011D6  3B3B              cmp di,[bp+di]
000011D8  3B3B              cmp di,[bp+di]
000011DA  3B3B              cmp di,[bp+di]
000011DC  3B3B              cmp di,[bp+di]
000011DE  3B3B              cmp di,[bp+di]
000011E0  3B3B              cmp di,[bp+di]
000011E2  3B3B              cmp di,[bp+di]
000011E4  3B3B              cmp di,[bp+di]
000011E6  3B3B              cmp di,[bp+di]
000011E8  3B3B              cmp di,[bp+di]
000011EA  3B3B              cmp di,[bp+di]
000011EC  3B3B              cmp di,[bp+di]
000011EE  3B3B              cmp di,[bp+di]
000011F0  3B3B              cmp di,[bp+di]
000011F2  0A7374            or dh,[bp+di+0x74]
000011F5  61                popa
000011F6  67655F            gs a32 pop di
000011F9  323A              xor bh,[bp+si]
000011FB  0A20              or ah,[bx+si]
000011FD  2020              and [bx+si],ah
000011FF  2020              and [bx+si],ah
00001201  2020              and [bx+si],ah
00001203  203B              and [bp+di],bh
00001205  3B3B              cmp di,[bp+di]
00001207  3B3B              cmp di,[bp+di]
00001209  3B3B              cmp di,[bp+di]
0000120B  3B3B              cmp di,[bp+di]
0000120D  3B3B              cmp di,[bp+di]
0000120F  3B3B              cmp di,[bp+di]
00001211  3B3B              cmp di,[bp+di]
00001213  3B3B              cmp di,[bp+di]
00001215  3B3B              cmp di,[bp+di]
00001217  3B3B              cmp di,[bp+di]
00001219  3B3B              cmp di,[bp+di]
0000121B  3B3B              cmp di,[bp+di]
0000121D  3B3B              cmp di,[bp+di]
0000121F  3B3B              cmp di,[bp+di]
00001221  3B3B              cmp di,[bp+di]
00001223  3B3B              cmp di,[bp+di]
00001225  3B3B              cmp di,[bp+di]
00001227  3B3B              cmp di,[bp+di]
00001229  3B3B              cmp di,[bp+di]
0000122B  3B3B              cmp di,[bp+di]
0000122D  3B3B              cmp di,[bp+di]
0000122F  3B3B              cmp di,[bp+di]
00001231  3B3B              cmp di,[bp+di]
00001233  3B3B              cmp di,[bp+di]
00001235  0A20              or ah,[bx+si]
00001237  2020              and [bx+si],ah
00001239  2020              and [bx+si],ah
0000123B  2020              and [bx+si],ah
0000123D  203B              and [bp+di],bh
0000123F  20E6              and dh,ah
00001241  96                xchg ax,si
00001242  87E5              xchg sp,bp
00001244  AD                lodsw
00001245  97                xchg ax,di
00001246  E588              in ax,0x88
00001248  97                xchg ax,di
00001249  E382              jcxz 0x11cd
0000124B  92                xchg ax,dx
0000124C  E8A1A8            call 0xbaf0
0000124F  E7A4              out 0xa4,ax
00001251  BA0A20            mov dx,0x200a
00001254  2020              and [bx+si],ah
00001256  2020              and [bx+si],ah
00001258  2020              and [bx+si],ah
0000125A  203B              and [bp+di],bh
0000125C  3B3B              cmp di,[bp+di]
0000125E  3B3B              cmp di,[bp+di]
00001260  3B3B              cmp di,[bp+di]
00001262  3B3B              cmp di,[bp+di]
00001264  3B3B              cmp di,[bp+di]
00001266  3B3B              cmp di,[bp+di]
00001268  3B3B              cmp di,[bp+di]
0000126A  3B3B              cmp di,[bp+di]
0000126C  3B3B              cmp di,[bp+di]
0000126E  3B3B              cmp di,[bp+di]
00001270  3B3B              cmp di,[bp+di]
00001272  3B3B              cmp di,[bp+di]
00001274  3B3B              cmp di,[bp+di]
00001276  3B3B              cmp di,[bp+di]
00001278  3B3B              cmp di,[bp+di]
0000127A  3B3B              cmp di,[bp+di]
0000127C  3B3B              cmp di,[bp+di]
0000127E  3B3B              cmp di,[bp+di]
00001280  3B3B              cmp di,[bp+di]
00001282  3B3B              cmp di,[bp+di]
00001284  3B3B              cmp di,[bp+di]
00001286  3B3B              cmp di,[bp+di]
00001288  3B3B              cmp di,[bp+di]
0000128A  3B3B              cmp di,[bp+di]
0000128C  0A20              or ah,[bx+si]
0000128E  2020              and [bx+si],ah
00001290  2020              and [bx+si],ah
00001292  2020              and [bx+si],ah
00001294  206364            and [bp+di+0x64],ah
00001297  65636C20          arpl [gs:si+0x20],bp
0000129B  7075              jo 0x1312
0000129D  7473              jz 0x1312
0000129F  2C20              sub al,0x20
000012A1  2E7330            cs jnc 0x12d4
000012A4  2020              and [bx+si],ah
000012A6  2020              and [bx+si],ah
000012A8  2020              and [bx+si],ah
000012AA  2020              and [bx+si],ah
000012AC  2020              and [bx+si],ah
000012AE  2020              and [bx+si],ah
000012B0  2020              and [bx+si],ah
000012B2  2020              and [bx+si],ah
000012B4  2020              and [bx+si],ah
000012B6  2020              and [bx+si],ah
000012B8  2020              and [bx+si],ah
000012BA  2020              and [bx+si],ah
000012BC  2020              and [bx+si],ah
000012BE  2020              and [bx+si],ah
000012C0  2020              and [bx+si],ah
000012C2  2020              and [bx+si],ah
000012C4  203B              and [bp+di],bh
000012C6  207075            and [bx+si+0x75],dh
000012C9  7473              jz 0x133e
000012CB  282E7330          sub [0x3073],ch
000012CF  293B              sub [bp+di],di
000012D1  0A0A              or cl,[bp+si]
000012D3  2020              and [bx+si],ah
000012D5  2020              and [bx+si],ah
000012D7  2020              and [bx+si],ah
000012D9  2020              and [bx+si],ah
000012DB  3B3B              cmp di,[bp+di]
000012DD  3B3B              cmp di,[bp+di]
000012DF  3B3B              cmp di,[bp+di]
000012E1  3B3B              cmp di,[bp+di]
000012E3  3B3B              cmp di,[bp+di]
000012E5  3B3B              cmp di,[bp+di]
000012E7  3B3B              cmp di,[bp+di]
000012E9  3B3B              cmp di,[bp+di]
000012EB  3B3B              cmp di,[bp+di]
000012ED  3B3B              cmp di,[bp+di]
000012EF  3B3B              cmp di,[bp+di]
000012F1  3B3B              cmp di,[bp+di]
000012F3  3B3B              cmp di,[bp+di]
000012F5  3B3B              cmp di,[bp+di]
000012F7  3B3B              cmp di,[bp+di]
000012F9  3B3B              cmp di,[bp+di]
000012FB  3B3B              cmp di,[bp+di]
000012FD  3B3B              cmp di,[bp+di]
000012FF  3B3B              cmp di,[bp+di]
00001301  3B3B              cmp di,[bp+di]
00001303  3B3B              cmp di,[bp+di]
00001305  3B3B              cmp di,[bp+di]
00001307  3B3B              cmp di,[bp+di]
00001309  3B3B              cmp di,[bp+di]
0000130B  3B0A              cmp cx,[bp+si]
0000130D  2020              and [bx+si],ah
0000130F  2020              and [bx+si],ah
00001311  2020              and [bx+si],ah
00001313  2020              and [bx+si],ah
00001315  3B20              cmp sp,[bx+si]
00001317  E383              jcxz 0x129c
00001319  89E3              mov bx,sp
0000131B  83A9E382A4        sub word [bx+di-0x7d1d],byte -0x5c
00001320  E383              jcxz 0x12a5
00001322  96                xchg ax,si
00001323  E683              out 0x83,al
00001325  85E5              test bp,sp
00001327  A0B1E3            mov al,[0xe3b1]
0000132A  82                db 0x82
0000132B  92                xchg ax,dx
0000132C  E58F              in ax,0x8f
0000132E  96                xchg ax,si
0000132F  E5BE              in ax,0xbe
00001331  97                xchg ax,di
00001332  0A20              or ah,[bx+si]
00001334  2020              and [bx+si],ah
00001336  2020              and [bx+si],ah
00001338  2020              and [bx+si],ah
0000133A  203B              and [bp+di],bh
0000133C  3B3B              cmp di,[bp+di]
0000133E  3A3B              cmp bh,[bp+di]
00001340  3B3B              cmp di,[bp+di]
00001342  3B3B              cmp di,[bp+di]
00001344  3B3B              cmp di,[bp+di]
00001346  3B3B              cmp di,[bp+di]
00001348  3B3B              cmp di,[bp+di]
0000134A  3B3B              cmp di,[bp+di]
0000134C  3B3B              cmp di,[bp+di]
0000134E  3B3B              cmp di,[bp+di]
00001350  3B3B              cmp di,[bp+di]
00001352  3B3B              cmp di,[bp+di]
00001354  3B3B              cmp di,[bp+di]
00001356  3B3B              cmp di,[bp+di]
00001358  3B3B              cmp di,[bp+di]
0000135A  3B3B              cmp di,[bp+di]
0000135C  3B3B              cmp di,[bp+di]
0000135E  3B3B              cmp di,[bp+di]
00001360  3B3B              cmp di,[bp+di]
00001362  3B3B              cmp di,[bp+di]
00001364  3B3B              cmp di,[bp+di]
00001366  3B3B              cmp di,[bp+di]
00001368  3B3B              cmp di,[bp+di]
0000136A  3B3B              cmp di,[bp+di]
0000136C  0A20              or ah,[bx+si]
0000136E  2020              and [bx+si],ah
00001370  2020              and [bx+si],ah
00001372  2020              and [bx+si],ah
00001374  206364            and [bp+di+0x64],ah
00001377  65636C20          arpl [gs:si+0x20],bp
0000137B  2020              and [bx+si],ah
0000137D  6765745F          gs jz 0x13e0
00001381  647269            fs jc 0x13ed
00001384  7665              jna 0x13eb
00001386  5F                pop di
00001387  7061              jo 0x13ea
00001389  7261              jc 0x13ec
0000138B  6D                insw
0000138C  2C20              sub al,0x20
0000138E  42                inc dx
0000138F  4F                dec di
00001390  4F                dec di
00001391  54                push sp
00001392  2020              and [bx+si],ah
00001394  2020              and [bx+si],ah
00001396  2020              and [bx+si],ah
00001398  2020              and [bx+si],ah
0000139A  2020              and [bx+si],ah
0000139C  2020              and [bx+si],ah
0000139E  2020              and [bx+si],ah
000013A0  2020              and [bx+si],ah
000013A2  2020              and [bx+si],ah
000013A4  203B              and [bp+di],bh
000013A6  206765            and [bx+0x65],ah
000013A9  745F              jz 0x140a
000013AB  647269            fs jc 0x1417
000013AE  7665              jna 0x1415
000013B0  5F                pop di
000013B1  7061              jo 0x1414
000013B3  7261              jc 0x1416
000013B5  6D                insw
000013B6  28424F            sub [bp+si+0x4f],al
000013B9  4F                dec di
000013BA  54                push sp
000013BB  293B              sub [bp+di],di
000013BD  0A20              or ah,[bx+si]
000013BF  2020              and [bx+si],ah
000013C1  2020              and [bx+si],ah
000013C3  2020              and [bx+si],ah
000013C5  20636D            and [bp+di+0x6d],ah
000013C8  7020              jo 0x13ea
000013CA  2020              and [bx+si],ah
000013CC  2020              and [bx+si],ah
000013CE  61                popa
000013CF  7820              js 0x13f1
000013D1  2C20              sub al,0x20
000013D3  3020              xor [bx+si],ah
000013D5  2020              and [bx+si],ah
000013D7  2020              and [bx+si],ah
000013D9  2020              and [bx+si],ah
000013DB  2020              and [bx+si],ah
000013DD  2020              and [bx+si],ah
000013DF  2020              and [bx+si],ah
000013E1  2020              and [bx+si],ah
000013E3  2020              and [bx+si],ah
000013E5  2020              and [bx+si],ah
000013E7  2020              and [bx+si],ah
000013E9  2020              and [bx+si],ah
000013EB  2020              and [bx+si],ah
000013ED  2020              and [bx+si],ah
000013EF  2020              and [bx+si],ah
000013F1  2020              and [bx+si],ah
000013F3  2020              and [bx+si],ah
000013F5  203B              and [bp+di],bh
000013F7  206966            and [bx+di+0x66],ch
000013FA  2028              and [bx+si],ch
000013FC  3020              xor [bx+si],ah
000013FE  3D3D20            cmp ax,0x203d
00001401  41                inc cx
00001402  58                pop ax
00001403  290A              sub [bp+si],cx
00001405  2E3130            xor [cs:bx+si],si
00001408  51                push cx
00001409  3A20              cmp ah,[bx+si]
0000140B  2020              and [bx+si],ah
0000140D  6A6E              push byte +0x6e
0000140F  7A20              jpe 0x1431
00001411  2020              and [bx+si],ah
00001413  2020              and [bx+si],ah
00001415  2E3130            xor [cs:bx+si],si
00001418  45                inc bp
00001419  2020              and [bx+si],ah
0000141B  2020              and [bx+si],ah
0000141D  2020              and [bx+si],ah
0000141F  2020              and [bx+si],ah
00001421  2020              and [bx+si],ah
00001423  2020              and [bx+si],ah
00001425  2020              and [bx+si],ah
00001427  2020              and [bx+si],ah
00001429  2020              and [bx+si],ah
0000142B  2020              and [bx+si],ah
0000142D  2020              and [bx+si],ah
0000142F  2020              and [bx+si],ah
00001431  2020              and [bx+si],ah
00001433  2020              and [bx+si],ah
00001435  2020              and [bx+si],ah
00001437  2020              and [bx+si],ah
00001439  2020              and [bx+si],ah
0000143B  2020              and [bx+si],ah
0000143D  3B20              cmp sp,[bx+si]
0000143F  7B0A              jpo 0x144b
00001441  2E3130            xor [cs:bx+si],si
00001444  54                push sp
00001445  3A20              cmp ah,[bx+si]
00001447  2020              and [bx+si],ah
00001449  636465            arpl [si+0x65],sp
0000144C  636C20            arpl [si+0x20],bp
0000144F  2020              and [bx+si],ah
00001451  7075              jo 0x14c8
00001453  7473              jz 0x14c8
00001455  2C20              sub al,0x20
00001457  2E653020          xor [gs:bx+si],ah
0000145B  2020              and [bx+si],ah
0000145D  2020              and [bx+si],ah
0000145F  2020              and [bx+si],ah
00001461  2020              and [bx+si],ah
00001463  2020              and [bx+si],ah
00001465  2020              and [bx+si],ah
00001467  2020              and [bx+si],ah
00001469  2020              and [bx+si],ah
0000146B  2020              and [bx+si],ah
0000146D  2020              and [bx+si],ah
0000146F  2020              and [bx+si],ah
00001471  2020              and [bx+si],ah
00001473  2020              and [bx+si],ah
00001475  2020              and [bx+si],ah
00001477  2020              and [bx+si],ah
00001479  3B20              cmp sp,[bx+si]
0000147B  2020              and [bx+si],ah
0000147D  7075              jo 0x14f4
0000147F  7473              jz 0x14f4
00001481  282E6530          sub [0x3065],ch
00001485  293B              sub [bp+di],di
00001487  0A20              or ah,[bx+si]
00001489  2020              and [bx+si],ah
0000148B  2020              and [bx+si],ah
0000148D  2020              and [bx+si],ah
0000148F  206361            and [bp+di+0x61],ah
00001492  6C                insb
00001493  6C                insb
00001494  2020              and [bx+si],ah
00001496  2020              and [bx+si],ah
00001498  7265              jc 0x14ff
0000149A  626F6F            bound bp,[bx+0x6f]
0000149D  7420              jz 0x14bf
0000149F  2020              and [bx+si],ah
000014A1  2020              and [bx+si],ah
000014A3  2020              and [bx+si],ah
000014A5  2020              and [bx+si],ah
000014A7  2020              and [bx+si],ah
000014A9  2020              and [bx+si],ah
000014AB  2020              and [bx+si],ah
000014AD  2020              and [bx+si],ah
000014AF  2020              and [bx+si],ah
000014B1  2020              and [bx+si],ah
000014B3  2020              and [bx+si],ah
000014B5  2020              and [bx+si],ah
000014B7  2020              and [bx+si],ah
000014B9  2020              and [bx+si],ah
000014BB  2020              and [bx+si],ah
000014BD  2020              and [bx+si],ah
000014BF  203B              and [bp+di],bh
000014C1  2020              and [bx+si],ah
000014C3  207265            and [bp+si+0x65],dh
000014C6  626F6F            bound bp,[bx+0x6f]
000014C9  7428              jz 0x14f3
000014CB  293B              sub [bp+di],di
000014CD  202F              and [bx],ch
000014CF  2F                das
000014D0  E586              in ax,0x86
000014D2  8D                db 0x8d
000014D3  E8B5B7            call 0xcc8b
000014D6  E58B              in ax,0x8b
000014D8  95                xchg ax,bp
000014D9  0A2E3130          or ch,[0x3031]
000014DD  45                inc bp
000014DE  3A20              cmp ah,[bx+si]
000014E0  2020              and [bx+si],ah
000014E2  2020              and [bx+si],ah
000014E4  2020              and [bx+si],ah
000014E6  2020              and [bx+si],ah
000014E8  2020              and [bx+si],ah
000014EA  2020              and [bx+si],ah
000014EC  2020              and [bx+si],ah
000014EE  2020              and [bx+si],ah
000014F0  2020              and [bx+si],ah
000014F2  2020              and [bx+si],ah
000014F4  2020              and [bx+si],ah
000014F6  2020              and [bx+si],ah
000014F8  2020              and [bx+si],ah
000014FA  2020              and [bx+si],ah
000014FC  2020              and [bx+si],ah
000014FE  2020              and [bx+si],ah
00001500  2020              and [bx+si],ah
00001502  2020              and [bx+si],ah
00001504  2020              and [bx+si],ah
00001506  2020              and [bx+si],ah
00001508  2020              and [bx+si],ah
0000150A  2020              and [bx+si],ah
0000150C  2020              and [bx+si],ah
0000150E  2020              and [bx+si],ah
00001510  2020              and [bx+si],ah
00001512  3B20              cmp sp,[bx+si]
00001514  7D0A              jnl 0x1520
00001516  2020              and [bx+si],ah
00001518  2020              and [bx+si],ah
0000151A  2020              and [bx+si],ah
0000151C  2020              and [bx+si],ah
0000151E  3B3B              cmp di,[bp+di]
00001520  3B3B              cmp di,[bp+di]
00001522  3B3B              cmp di,[bp+di]
00001524  3B3B              cmp di,[bp+di]
00001526  3B3B              cmp di,[bp+di]
00001528  3B3B              cmp di,[bp+di]
0000152A  3B3B              cmp di,[bp+di]
0000152C  3B3B              cmp di,[bp+di]
0000152E  3B3B              cmp di,[bp+di]
00001530  3B3B              cmp di,[bp+di]
00001532  3B3B              cmp di,[bp+di]
00001534  3B3B              cmp di,[bp+di]
00001536  3B3B              cmp di,[bp+di]
00001538  3B3B              cmp di,[bp+di]
0000153A  3B3B              cmp di,[bp+di]
0000153C  3B3B              cmp di,[bp+di]
0000153E  3B3B              cmp di,[bp+di]
00001540  3B3B              cmp di,[bp+di]
00001542  3B3B              cmp di,[bp+di]
00001544  3B3B              cmp di,[bp+di]
00001546  3B3B              cmp di,[bp+di]
00001548  3B3B              cmp di,[bp+di]
0000154A  3B3B              cmp di,[bp+di]
0000154C  3B3B              cmp di,[bp+di]
0000154E  3B0A              cmp cx,[bp+si]
00001550  2020              and [bx+si],ah
00001552  2020              and [bx+si],ah
00001554  2020              and [bx+si],ah
00001556  2020              and [bx+si],ah
00001558  3B20              cmp sp,[bx+si]
0000155A  E383              jcxz 0x14df
0000155C  89E3              mov bx,sp
0000155E  83A9E382A4        sub word [bx+di-0x7d1d],byte -0x5c
00001563  E383              jcxz 0x14e8
00001565  96                xchg ax,si
00001566  E683              out 0x83,al
00001568  85E5              test bp,sp
0000156A  A0B1E3            mov al,[0xe3b1]
0000156D  82                db 0x82
0000156E  92                xchg ax,dx
0000156F  E8A1A8            call 0xbe13
00001572  E7A4              out 0xa4,ax
00001574  BA0A20            mov dx,0x200a
00001577  2020              and [bx+si],ah
00001579  2020              and [bx+si],ah
0000157B  2020              and [bx+si],ah
0000157D  203B              and [bp+di],bh
0000157F  3B3B              cmp di,[bp+di]
00001581  3B3B              cmp di,[bp+di]
00001583  3B3B              cmp di,[bp+di]
00001585  3B3B              cmp di,[bp+di]
00001587  3B3B              cmp di,[bp+di]
00001589  3B3B              cmp di,[bp+di]
0000158B  3B3B              cmp di,[bp+di]
0000158D  3B3B              cmp di,[bp+di]
0000158F  3B3B              cmp di,[bp+di]
00001591  3B3B              cmp di,[bp+di]
00001593  3B3B              cmp di,[bp+di]
00001595  3B3B              cmp di,[bp+di]
00001597  3B3B              cmp di,[bp+di]
00001599  3B3B              cmp di,[bp+di]
0000159B  3B3B              cmp di,[bp+di]
0000159D  3B3B              cmp di,[bp+di]
0000159F  3B3B              cmp di,[bp+di]
000015A1  3B3B              cmp di,[bp+di]
000015A3  3B3B              cmp di,[bp+di]
000015A5  3B3B              cmp di,[bp+di]
000015A7  3B3B              cmp di,[bp+di]
000015A9  3B3B              cmp di,[bp+di]
000015AB  3B3B              cmp di,[bp+di]
000015AD  3B3B              cmp di,[bp+di]
000015AF  0A20              or ah,[bx+si]
000015B1  2020              and [bx+si],ah
000015B3  2020              and [bx+si],ah
000015B5  2020              and [bx+si],ah
000015B7  206D6F            and [di+0x6f],ch
000015BA  7620              jna 0x15dc
000015BC  2020              and [bx+si],ah
000015BE  2020              and [bx+si],ah
000015C0  61                popa
000015C1  7820              js 0x15e3
000015C3  2C20              sub al,0x20
000015C5  5B                pop bx
000015C6  42                inc dx
000015C7  4F                dec di
000015C8  4F                dec di
000015C9  54                push sp
000015CA  202B              and [bp+di],ch
000015CC  206472            and [si+0x72],ah
000015CF  6976652E6E        imul si,[bp+0x65],word 0x6e2e
000015D4  6F                outsw
000015D5  5D                pop bp
000015D6  2020              and [bx+si],ah
000015D8  2020              and [bx+si],ah
000015DA  2020              and [bx+si],ah
000015DC  2020              and [bx+si],ah
000015DE  2020              and [bx+si],ah
000015E0  2020              and [bx+si],ah
000015E2  2020              and [bx+si],ah
000015E4  2020              and [bx+si],ah
000015E6  2020              and [bx+si],ah
000015E8  3B20              cmp sp,[bx+si]
000015EA  41                inc cx
000015EB  58                pop ax
000015EC  203D              and [di],bh
000015EE  20E3              and bl,ah
000015F0  8396E383BC        adc word [bp-0x7c1d],byte -0x44
000015F5  E383              jcxz 0x157a
000015F7  88E3              mov bl,ah
000015F9  8389E383A9        or word [bx+di-0x7c1d],byte -0x57
000015FE  E382              jcxz 0x1582
00001600  A4                movsb
00001601  E383              jcxz 0x1586
00001603  96                xchg ax,si
00001604  0A20              or ah,[bx+si]
00001606  2020              and [bx+si],ah
00001608  2020              and [bx+si],ah
0000160A  2020              and [bx+si],ah
0000160C  206364            and [bp+di+0x64],ah
0000160F  65636C20          arpl [gs:si+0x20],bp
00001613  2020              and [bx+si],ah
00001615  69746F612C        imul si,[si+0x6f],word 0x2c61
0000161A  206178            and [bx+di+0x78],ah
0000161D  2C20              sub al,0x20
0000161F  2E7031            cs jo 0x1653
00001622  2C20              sub al,0x20
00001624  322C              xor ch,[si]
00001626  2031              and [bx+di],dh
00001628  362C20            ss sub al,0x20
0000162B  306230            xor [bp+si+0x30],ah
0000162E  3130              xor [bx+si],si
00001630  3020              xor [bx+si],ah
00001632  2020              and [bx+si],ah
00001634  2020              and [bx+si],ah
00001636  2020              and [bx+si],ah
00001638  2020              and [bx+si],ah
0000163A  2020              and [bx+si],ah
0000163C  203B              and [bp+di],bh
0000163E  0A0A              or cl,[bp+si]
00001640  2020              and [bx+si],ah
00001642  2020              and [bx+si],ah
00001644  2020              and [bx+si],ah
00001646  2020              and [bx+si],ah
00001648  6D                insw
00001649  6F                outsw
0000164A  7620              jna 0x166c
0000164C  2020              and [bx+si],ah
0000164E  2020              and [bx+si],ah
00001650  61                popa
00001651  7820              js 0x1673
00001653  2C20              sub al,0x20
00001655  5B                pop bx
00001656  42                inc dx
00001657  4F                dec di
00001658  4F                dec di
00001659  54                push sp
0000165A  202B              and [bp+di],ch
0000165C  206472            and [si+0x72],ah
0000165F  6976652E63        imul si,[bp+0x65],word 0x632e
00001664  796C              jns 0x16d2
00001666  6E                outsb
00001667  5D                pop bp
00001668  2020              and [bx+si],ah
0000166A  2020              and [bx+si],ah
0000166C  2020              and [bx+si],ah
0000166E  2020              and [bx+si],ah
00001670  2020              and [bx+si],ah
00001672  2020              and [bx+si],ah
00001674  2020              and [bx+si],ah
00001676  2020              and [bx+si],ah
00001678  3B20              cmp sp,[bx+si]
0000167A  41                inc cx
0000167B  58                pop ax
0000167C  203D              and [di],bh
0000167E  20E3              and bl,ah
00001680  82                db 0x82
00001681  B7E3              mov bh,0xe3
00001683  83AAE383B3        sub word [bp+si-0x7c1d],byte -0x4d
00001688  E383              jcxz 0x160d
0000168A  8028E3            sub byte [bx+si],0xe3
0000168D  8388E383A9        or word [bx+si-0x7c1d],byte -0x57
00001692  E383              jcxz 0x1617
00001694  83E382            and bx,byte -0x7e
00001697  AF                scasw
00001698  29E6              sub si,sp
0000169A  95                xchg ax,bp
0000169B  B00A              mov al,0xa
0000169D  2020              and [bx+si],ah
0000169F  2020              and [bx+si],ah
000016A1  2020              and [bx+si],ah
000016A3  2020              and [bx+si],ah
000016A5  636465            arpl [si+0x65],sp
000016A8  636C20            arpl [si+0x20],bp
000016AB  2020              and [bx+si],ah
000016AD  69746F612C        imul si,[si+0x6f],word 0x2c61
000016B2  206178            and [bx+di+0x78],ah
000016B5  2C20              sub al,0x20
000016B7  2E7032            cs jo 0x16ec
000016BA  2C20              sub al,0x20
000016BC  342C              xor al,0x2c
000016BE  2031              and [bx+di],dh
000016C0  362C20            ss sub al,0x20
000016C3  306230            xor [bp+si+0x30],ah
000016C6  3130              xor [bx+si],si
000016C8  3020              xor [bx+si],ah
000016CA  2020              and [bx+si],ah
000016CC  2020              and [bx+si],ah
000016CE  2020              and [bx+si],ah
000016D0  2020              and [bx+si],ah
000016D2  2020              and [bx+si],ah
000016D4  203B              and [bp+di],bh
000016D6  0A0A              or cl,[bp+si]
000016D8  2020              and [bx+si],ah
000016DA  2020              and [bx+si],ah
000016DC  2020              and [bx+si],ah
000016DE  2020              and [bx+si],ah
000016E0  6D                insw
000016E1  6F                outsw
000016E2  7620              jna 0x1704
000016E4  2020              and [bx+si],ah
000016E6  2020              and [bx+si],ah
000016E8  61                popa
000016E9  7820              js 0x170b
000016EB  2C20              sub al,0x20
000016ED  5B                pop bx
000016EE  42                inc dx
000016EF  4F                dec di
000016F0  4F                dec di
000016F1  54                push sp
000016F2  202B              and [bp+di],ch
000016F4  206472            and [si+0x72],ah
000016F7  6976652E68        imul si,[bp+0x65],word 0x682e
000016FC  6561              gs popa
000016FE  645D              fs pop bp
00001700  2020              and [bx+si],ah
00001702  2020              and [bx+si],ah
00001704  2020              and [bx+si],ah
00001706  2020              and [bx+si],ah
00001708  2020              and [bx+si],ah
0000170A  2020              and [bx+si],ah
0000170C  2020              and [bx+si],ah
0000170E  2020              and [bx+si],ah
00001710  3B20              cmp sp,[bx+si]
00001712  41                inc cx
00001713  58                pop ax
00001714  203D              and [di],bh
00001716  20E3              and bl,ah
00001718  8398E38383        sbb word [bx+si-0x7c1d],byte -0x7d
0000171D  E383              jcxz 0x16a2
0000171F  89E6              mov si,sp
00001721  95                xchg ax,bp
00001722  B00A              mov al,0xa
00001724  2020              and [bx+si],ah
00001726  2020              and [bx+si],ah
00001728  2020              and [bx+si],ah
0000172A  2020              and [bx+si],ah
0000172C  636465            arpl [si+0x65],sp
0000172F  636C20            arpl [si+0x20],bp
00001732  2020              and [bx+si],ah
00001734  69746F612C        imul si,[si+0x6f],word 0x2c61
00001739  206178            and [bx+di+0x78],ah
0000173C  2C20              sub al,0x20
0000173E  2E7033            cs jo 0x1774
00001741  2C20              sub al,0x20
00001743  322C              xor ch,[si]
00001745  2031              and [bx+di],dh
00001747  362C20            ss sub al,0x20
0000174A  306230            xor [bp+si+0x30],ah
0000174D  3130              xor [bx+si],si
0000174F  3020              xor [bx+si],ah
00001751  2020              and [bx+si],ah
00001753  2020              and [bx+si],ah
00001755  2020              and [bx+si],ah
00001757  2020              and [bx+si],ah
00001759  2020              and [bx+si],ah
0000175B  203B              and [bp+di],bh
0000175D  0A0A              or cl,[bp+si]
0000175F  2020              and [bx+si],ah
00001761  2020              and [bx+si],ah
00001763  2020              and [bx+si],ah
00001765  2020              and [bx+si],ah
00001767  6D                insw
00001768  6F                outsw
00001769  7620              jna 0x178b
0000176B  2020              and [bx+si],ah
0000176D  2020              and [bx+si],ah
0000176F  61                popa
00001770  7820              js 0x1792
00001772  2C20              sub al,0x20
00001774  5B                pop bx
00001775  42                inc dx
00001776  4F                dec di
00001777  4F                dec di
00001778  54                push sp
00001779  202B              and [bp+di],ch
0000177B  206472            and [si+0x72],ah
0000177E  6976652E73        imul si,[bp+0x65],word 0x732e
00001783  6563745D          arpl [gs:si+0x5d],si
00001787  2020              and [bx+si],ah
00001789  2020              and [bx+si],ah
0000178B  2020              and [bx+si],ah
0000178D  2020              and [bx+si],ah
0000178F  2020              and [bx+si],ah
00001791  2020              and [bx+si],ah
00001793  2020              and [bx+si],ah
00001795  2020              and [bx+si],ah
00001797  3B20              cmp sp,[bx+si]
00001799  41                inc cx
0000179A  58                pop ax
0000179B  3DE383            cmp ax,0x83e3
0000179E  88E3              mov bl,ah
000017A0  83A9E38383        sub word [bx+di-0x7c1d],byte -0x7d
000017A5  E382              jcxz 0x1729
000017A7  AF                scasw
000017A8  E381              jcxz 0x172b
000017AA  82                db 0x82
000017AB  E381              jcxz 0x172e
000017AD  9F                lahf
000017AE  E382              jcxz 0x1732
000017B0  8AE3              mov ah,bl
000017B2  81AEE382BBE3      sub word [bp-0x7d1d],0xe3bb
000017B8  82                db 0x82
000017B9  AF                scasw
000017BA  E382              jcxz 0x173e
000017BC  BFE695            mov di,0x95e6
000017BF  B00A              mov al,0xa
000017C1  2020              and [bx+si],ah
000017C3  2020              and [bx+si],ah
000017C5  2020              and [bx+si],ah
000017C7  2020              and [bx+si],ah
000017C9  636465            arpl [si+0x65],sp
000017CC  636C20            arpl [si+0x20],bp
000017CF  2020              and [bx+si],ah
000017D1  69746F612C        imul si,[si+0x6f],word 0x2c61
000017D6  206178            and [bx+di+0x78],ah
000017D9  2C20              sub al,0x20
000017DB  2E7034            cs jo 0x1812
000017DE  2C20              sub al,0x20
000017E0  322C              xor ch,[si]
000017E2  2031              and [bx+di],dh
000017E4  362C20            ss sub al,0x20
000017E7  306230            xor [bp+si+0x30],ah
000017EA  3130              xor [bx+si],si
000017EC  3020              xor [bx+si],ah
000017EE  2020              and [bx+si],ah
000017F0  2020              and [bx+si],ah
000017F2  2020              and [bx+si],ah
000017F4  2020              and [bx+si],ah
000017F6  2020              and [bx+si],ah
000017F8  203B              and [bp+di],bh
000017FA  0A0A              or cl,[bp+si]
000017FC  2020              and [bx+si],ah
000017FE  2020              and [bx+si],ah
00001800  2020              and [bx+si],ah
00001802  2020              and [bx+si],ah
00001804  636465            arpl [si+0x65],sp
00001807  636C20            arpl [si+0x20],bp
0000180A  2020              and [bx+si],ah
0000180C  7075              jo 0x1883
0000180E  7473              jz 0x1883
00001810  2C20              sub al,0x20
00001812  2E7332            cs jnc 0x1847
00001815  2020              and [bx+si],ah
00001817  2020              and [bx+si],ah
00001819  2020              and [bx+si],ah
0000181B  2020              and [bx+si],ah
0000181D  2020              and [bx+si],ah
0000181F  2020              and [bx+si],ah
00001821  2020              and [bx+si],ah
00001823  2020              and [bx+si],ah
00001825  2020              and [bx+si],ah
00001827  2020              and [bx+si],ah
00001829  2020              and [bx+si],ah
0000182B  2020              and [bx+si],ah
0000182D  2020              and [bx+si],ah
0000182F  2020              and [bx+si],ah
00001831  2020              and [bx+si],ah
00001833  203B              and [bp+di],bh
00001835  207075            and [bx+si+0x75],dh
00001838  7473              jz 0x18ad
0000183A  282E7332          sub [0x3273],ch
0000183E  293B              sub [bp+di],di
00001840  202F              and [bx],ch
00001842  2F                das
00001843  E683              out 0x83,al
00001845  85E5              test bp,sp
00001847  A0B1E3            mov al,[0xe3b1]
0000184A  82                db 0x82
0000184B  92                xchg ax,dx
0000184C  E8A1A8            call 0xc0f0
0000184F  E7A4              out 0xa4,ax
00001851  BA0A0A            mov dx,0xa0a
00001854  2020              and [bx+si],ah
00001856  2020              and [bx+si],ah
00001858  2020              and [bx+si],ah
0000185A  2020              and [bx+si],ah
0000185C  3B3B              cmp di,[bp+di]
0000185E  3B3B              cmp di,[bp+di]
00001860  3B3B              cmp di,[bp+di]
00001862  3B3B              cmp di,[bp+di]
00001864  3B3B              cmp di,[bp+di]
00001866  3B3B              cmp di,[bp+di]
00001868  3B3B              cmp di,[bp+di]
0000186A  3B3B              cmp di,[bp+di]
0000186C  3B3B              cmp di,[bp+di]
0000186E  3B3B              cmp di,[bp+di]
00001870  3B3B              cmp di,[bp+di]
00001872  3B3B              cmp di,[bp+di]
00001874  3B3B              cmp di,[bp+di]
00001876  3B3B              cmp di,[bp+di]
00001878  3B3B              cmp di,[bp+di]
0000187A  3B3B              cmp di,[bp+di]
0000187C  3B3B              cmp di,[bp+di]
0000187E  3B3B              cmp di,[bp+di]
00001880  3B3B              cmp di,[bp+di]
00001882  3B3B              cmp di,[bp+di]
00001884  3B3B              cmp di,[bp+di]
00001886  3B3B              cmp di,[bp+di]
00001888  3B3B              cmp di,[bp+di]
0000188A  3B3B              cmp di,[bp+di]
0000188C  3B0A              cmp cx,[bp+si]
0000188E  2020              and [bx+si],ah
00001890  2020              and [bx+si],ah
00001892  2020              and [bx+si],ah
00001894  2020              and [bx+si],ah
00001896  3B20              cmp sp,[bx+si]
00001898  E695              out 0x95,al
0000189A  B0E5              mov al,0xe5
0000189C  80A4E38292        and byte [si-0x7d1d],0x92
000018A1  E8A1A8            call 0xc145
000018A4  E7A4              out 0xa4,ax
000018A6  BA0A20            mov dx,0x200a
000018A9  2020              and [bx+si],ah
000018AB  2020              and [bx+si],ah
000018AD  2020              and [bx+si],ah
000018AF  203B              and [bp+di],bh
000018B1  3B3B              cmp di,[bp+di]
000018B3  3B3B              cmp di,[bp+di]
000018B5  3B3B              cmp di,[bp+di]
000018B7  3B3B              cmp di,[bp+di]
000018B9  3B3B              cmp di,[bp+di]
000018BB  3B3B              cmp di,[bp+di]
000018BD  3B3B              cmp di,[bp+di]
000018BF  3B3B              cmp di,[bp+di]
000018C1  3B3B              cmp di,[bp+di]
000018C3  3B3B              cmp di,[bp+di]
000018C5  3B3B              cmp di,[bp+di]
000018C7  3B3B              cmp di,[bp+di]
000018C9  3B3B              cmp di,[bp+di]
000018CB  3B3B              cmp di,[bp+di]
000018CD  3B3B              cmp di,[bp+di]
000018CF  3B3B              cmp di,[bp+di]
000018D1  3B3B              cmp di,[bp+di]
000018D3  3B3B              cmp di,[bp+di]
000018D5  3B3B              cmp di,[bp+di]
000018D7  3B3B              cmp di,[bp+di]
000018D9  3B3B              cmp di,[bp+di]
000018DB  3B3B              cmp di,[bp+di]
000018DD  3B3B              cmp di,[bp+di]
000018DF  3B3B              cmp di,[bp+di]
000018E1  0A20              or ah,[bx+si]
000018E3  2020              and [bx+si],ah
000018E5  2020              and [bx+si],ah
000018E7  2020              and [bx+si],ah
000018E9  206D6F            and [di+0x6f],ch
000018EC  7620              jna 0x190e
000018EE  2020              and [bx+si],ah
000018F0  2020              and [bx+si],ah
000018F2  61                popa
000018F3  7820              js 0x1915
000018F5  2C20              sub al,0x20
000018F7  3339              xor di,[bx+di]
000018F9  3339              xor di,[bx+di]
000018FB  2020              and [bx+si],ah
000018FD  2020              and [bx+si],ah
000018FF  2020              and [bx+si],ah
00001901  2020              and [bx+si],ah
00001903  2020              and [bx+si],ah
00001905  2020              and [bx+si],ah
00001907  2020              and [bx+si],ah
00001909  2020              and [bx+si],ah
0000190B  2020              and [bx+si],ah
0000190D  2020              and [bx+si],ah
0000190F  2020              and [bx+si],ah
00001911  2020              and [bx+si],ah
00001913  2020              and [bx+si],ah
00001915  2020              and [bx+si],ah
00001917  2020              and [bx+si],ah
00001919  203B              and [bp+di],bh
0000191B  0A20              or ah,[bx+si]
0000191D  2020              and [bx+si],ah
0000191F  2020              and [bx+si],ah
00001921  2020              and [bx+si],ah
00001923  206364            and [bp+di+0x64],ah
00001926  65636C20          arpl [gs:si+0x20],bp
0000192A  69746F612C        imul si,[si+0x6f],word 0x2c61
0000192F  206178            and [bx+di+0x78],ah
00001932  2C20              sub al,0x20
00001934  2E7331            cs jnc 0x1968
00001937  2C20              sub al,0x20
00001939  382C              cmp [si],ch
0000193B  2031              and [bx+di],dh
0000193D  302C              xor [si],ch
0000193F  2030              and [bx+si],dh
00001941  6230              bound si,[bx+si]
00001943  3030              xor [bx+si],dh
00001945  3120              xor [bx+si],sp
00001947  2020              and [bx+si],ah
00001949  2020              and [bx+si],ah
0000194B  2020              and [bx+si],ah
0000194D  2020              and [bx+si],ah
0000194F  2020              and [bx+si],ah
00001951  2020              and [bx+si],ah
00001953  203B              and [bp+di],bh
00001955  0A20              or ah,[bx+si]
00001957  2020              and [bx+si],ah
00001959  2020              and [bx+si],ah
0000195B  2020              and [bx+si],ah
0000195D  206364            and [bp+di+0x64],ah
00001960  65636C20          arpl [gs:si+0x20],bp
00001964  7075              jo 0x19db
00001966  7473              jz 0x19db
00001968  2C20              sub al,0x20
0000196A  2E7331            cs jnc 0x199e
0000196D  2020              and [bx+si],ah
0000196F  2020              and [bx+si],ah
00001971  2020              and [bx+si],ah
00001973  2020              and [bx+si],ah
00001975  2020              and [bx+si],ah
00001977  2020              and [bx+si],ah
00001979  2020              and [bx+si],ah
0000197B  2020              and [bx+si],ah
0000197D  2020              and [bx+si],ah
0000197F  2020              and [bx+si],ah
00001981  2020              and [bx+si],ah
00001983  2020              and [bx+si],ah
00001985  2020              and [bx+si],ah
00001987  2020              and [bx+si],ah
00001989  2020              and [bx+si],ah
0000198B  2020              and [bx+si],ah
0000198D  203B              and [bp+di],bh
0000198F  207075            and [bx+si+0x75],dh
00001992  7473              jz 0x1a07
00001994  282E7331          sub [0x3173],ch
00001998  293B              sub [bp+di],di
0000199A  0A0A              or cl,[bp+si]
0000199C  2020              and [bx+si],ah
0000199E  2020              and [bx+si],ah
000019A0  2020              and [bx+si],ah
000019A2  2020              and [bx+si],ah
000019A4  3B3B              cmp di,[bp+di]
000019A6  3B3B              cmp di,[bp+di]
000019A8  3B3B              cmp di,[bp+di]
000019AA  3B3B              cmp di,[bp+di]
000019AC  3B3B              cmp di,[bp+di]
000019AE  3B3B              cmp di,[bp+di]
000019B0  3B3B              cmp di,[bp+di]
000019B2  3B3B              cmp di,[bp+di]
000019B4  3B3B              cmp di,[bp+di]
000019B6  3B3B              cmp di,[bp+di]
000019B8  3B3B              cmp di,[bp+di]
000019BA  3B3B              cmp di,[bp+di]
000019BC  3B3B              cmp di,[bp+di]
000019BE  3B3B              cmp di,[bp+di]
000019C0  3B3B              cmp di,[bp+di]
000019C2  3B3B              cmp di,[bp+di]
000019C4  3B3B              cmp di,[bp+di]
000019C6  3B3B              cmp di,[bp+di]
000019C8  3B3B              cmp di,[bp+di]
000019CA  3B3B              cmp di,[bp+di]
000019CC  3B3B              cmp di,[bp+di]
000019CE  3B3B              cmp di,[bp+di]
000019D0  3B3B              cmp di,[bp+di]
000019D2  3B3B              cmp di,[bp+di]
000019D4  3B0A              cmp cx,[bp+si]
000019D6  2020              and [bx+si],ah
000019D8  2020              and [bx+si],ah
000019DA  2020              and [bx+si],ah
000019DC  2020              and [bx+si],ah
000019DE  3B20              cmp sp,[bx+si]
000019E0  E383              jcxz 0x1965
000019E2  97                xchg ax,di
000019E3  E383              jcxz 0x1968
000019E5  AD                lodsw
000019E6  E382              jcxz 0x196a
000019E8  B0E3              mov al,0xe3
000019EA  83A9E383A0        sub word [bx+di-0x7c1d],byte -0x60
000019EF  E381              jcxz 0x1972
000019F1  AE                scasb
000019F2  E7B5              out 0xb5,ax
000019F4  82                db 0x82
000019F5  E4BA              in al,0xba
000019F7  860A              xchg cl,[bp+si]
000019F9  2020              and [bx+si],ah
000019FB  2020              and [bx+si],ah
000019FD  2020              and [bx+si],ah
000019FF  2020              and [bx+si],ah
00001A01  3B3B              cmp di,[bp+di]
00001A03  3B3B              cmp di,[bp+di]
00001A05  3B3B              cmp di,[bp+di]
00001A07  2E3B3B            cmp di,[cs:bp+di]
00001A0A  3B3B              cmp di,[bp+di]
00001A0C  3B3B              cmp di,[bp+di]
00001A0E  3B3B              cmp di,[bp+di]
00001A10  3B3B              cmp di,[bp+di]
00001A12  3B3B              cmp di,[bp+di]
00001A14  3B3B              cmp di,[bp+di]
00001A16  3B3B              cmp di,[bp+di]
00001A18  3B3B              cmp di,[bp+di]
00001A1A  3B3B              cmp di,[bp+di]
00001A1C  3B3B              cmp di,[bp+di]
00001A1E  3B3B              cmp di,[bp+di]
00001A20  3B3B              cmp di,[bp+di]
00001A22  3B3B              cmp di,[bp+di]
00001A24  3B3B              cmp di,[bp+di]
00001A26  3B3B              cmp di,[bp+di]
00001A28  3B3B              cmp di,[bp+di]
00001A2A  3B3B              cmp di,[bp+di]
00001A2C  3B3B              cmp di,[bp+di]
00001A2E  3B3B              cmp di,[bp+di]
00001A30  3B3B              cmp di,[bp+di]
00001A32  0A20              or ah,[bx+si]
00001A34  2020              and [bx+si],ah
00001A36  2020              and [bx+si],ah
00001A38  2020              and [bx+si],ah
00001A3A  206A6D            and [bp+si+0x6d],ch
00001A3D  7020              jo 0x1a5f
00001A3F  2020              and [bx+si],ah
00001A41  2020              and [bx+si],ah
00001A43  2420              and al,0x20
00001A45  2020              and [bx+si],ah
00001A47  2020              and [bx+si],ah
00001A49  2020              and [bx+si],ah
00001A4B  2020              and [bx+si],ah
00001A4D  2020              and [bx+si],ah
00001A4F  2020              and [bx+si],ah
00001A51  2020              and [bx+si],ah
00001A53  2020              and [bx+si],ah
00001A55  2020              and [bx+si],ah
00001A57  2020              and [bx+si],ah
00001A59  2020              and [bx+si],ah
00001A5B  2020              and [bx+si],ah
00001A5D  2020              and [bx+si],ah
00001A5F  2020              and [bx+si],ah
00001A61  2020              and [bx+si],ah
00001A63  2020              and [bx+si],ah
00001A65  2020              and [bx+si],ah
00001A67  2020              and [bx+si],ah
00001A69  2020              and [bx+si],ah
00001A6B  3B20              cmp sp,[bx+si]
00001A6D  7768              ja 0x1ad7
00001A6F  696C652028        imul bp,[si+0x65],word 0x2820
00001A74  3129              xor [bx+di],bp
00001A76  203B              and [bp+di],bh
00001A78  202F              and [bx],ch
00001A7A  2F                das
00001A7B  20E2              and dl,ah
00001A7D  889E0A0A          mov [bp+0xa0a],bl
00001A81  2020              and [bx+si],ah
00001A83  2020              and [bx+si],ah
00001A85  2020              and [bx+si],ah
00001A87  2020              and [bx+si],ah
00001A89  3B3B              cmp di,[bp+di]
00001A8B  3B3B              cmp di,[bp+di]
00001A8D  3B3B              cmp di,[bp+di]
00001A8F  3B3B              cmp di,[bp+di]
00001A91  3B3B              cmp di,[bp+di]
00001A93  3B3B              cmp di,[bp+di]
00001A95  3B3B              cmp di,[bp+di]
00001A97  3B3B              cmp di,[bp+di]
00001A99  3B3B              cmp di,[bp+di]
00001A9B  3B3B              cmp di,[bp+di]
00001A9D  3B3B              cmp di,[bp+di]
00001A9F  3B3B              cmp di,[bp+di]
00001AA1  3B3B              cmp di,[bp+di]
00001AA3  3B3B              cmp di,[bp+di]
00001AA5  3B3B              cmp di,[bp+di]
00001AA7  3B3B              cmp di,[bp+di]
00001AA9  3B3B              cmp di,[bp+di]
00001AAB  3B3B              cmp di,[bp+di]
00001AAD  3B3B              cmp di,[bp+di]
00001AAF  3B3B              cmp di,[bp+di]
00001AB1  3B3B              cmp di,[bp+di]
00001AB3  3B3B              cmp di,[bp+di]
00001AB5  3B3B              cmp di,[bp+di]
00001AB7  3B3B              cmp di,[bp+di]
00001AB9  3B0A              cmp cx,[bp+si]
00001ABB  2020              and [bx+si],ah
00001ABD  2020              and [bx+si],ah
00001ABF  2020              and [bx+si],ah
00001AC1  2020              and [bx+si],ah
00001AC3  3B20              cmp sp,[bx+si]
00001AC5  E383              jcxz 0x1a4a
00001AC7  87E3              xchg sp,bx
00001AC9  83BCE382BF        cmp word [si-0x7d1d],byte -0x41
00001ACE  0A20              or ah,[bx+si]
00001AD0  2020              and [bx+si],ah
00001AD2  2020              and [bx+si],ah
00001AD4  2020              and [bx+si],ah
00001AD6  203B              and [bp+di],bh
00001AD8  3B3B              cmp di,[bp+di]
00001ADA  3B3B              cmp di,[bp+di]
00001ADC  3B3B              cmp di,[bp+di]
00001ADE  3B3B              cmp di,[bp+di]
00001AE0  3B3B              cmp di,[bp+di]
00001AE2  3B3B              cmp di,[bp+di]
00001AE4  3B3B              cmp di,[bp+di]
00001AE6  3B3B              cmp di,[bp+di]
00001AE8  3B3B              cmp di,[bp+di]
00001AEA  3B3B              cmp di,[bp+di]
00001AEC  3B3B              cmp di,[bp+di]
00001AEE  3B3B              cmp di,[bp+di]
00001AF0  3B3B              cmp di,[bp+di]
00001AF2  3B3B              cmp di,[bp+di]
00001AF4  3B3B              cmp di,[bp+di]
00001AF6  3B3B              cmp di,[bp+di]
00001AF8  3B3B              cmp di,[bp+di]
00001AFA  3B3B              cmp di,[bp+di]
00001AFC  3B3B              cmp di,[bp+di]
00001AFE  3B3B              cmp di,[bp+di]
00001B00  3B3B              cmp di,[bp+di]
00001B02  3B3B              cmp di,[bp+di]
00001B04  3B3B              cmp di,[bp+di]
00001B06  3B3B              cmp di,[bp+di]
00001B08  0A2E7330          or ch,[0x3073]
00001B0C  2020              and [bx+si],ah
00001B0E  2020              and [bx+si],ah
00001B10  206462            and [si+0x62],ah
00001B13  2020              and [bx+si],ah
00001B15  2232              and dh,[bp+si]
00001B17  6E                outsb
00001B18  64207374          and [fs:bp+di+0x74],dh
00001B1C  61                popa
00001B1D  67652E2E2E222C20  and ch,[dword cs:eax]
00001B25  307830            xor [bx+si+0x30],bh
00001B28  41                inc cx
00001B29  2C20              sub al,0x20
00001B2B  307830            xor [bx+si+0x30],bh
00001B2E  44                inc sp
00001B2F  2C20              sub al,0x20
00001B31  300A              xor [bp+si],cl
00001B33  2E7331            cs jnc 0x1b67
00001B36  2020              and [bx+si],ah
00001B38  2020              and [bx+si],ah
00001B3A  206462            and [si+0x62],ah
00001B3D  2020              and [bx+si],ah
00001B3F  222D              and ch,[di]
00001B41  2D2D2D            sub ax,0x2d2d
00001B44  2D2D2D            sub ax,0x2d2d
00001B47  2D2220            sub ax,0x2022
00001B4A  2020              and [bx+si],ah
00001B4C  2C20              sub al,0x20
00001B4E  307830            xor [bx+si+0x30],bh
00001B51  41                inc cx
00001B52  202C              and [si],ch
00001B54  2030              and [bx+si],dh
00001B56  7830              js 0x1b88
00001B58  44                inc sp
00001B59  202C              and [si],ch
00001B5B  2030              and [bx+si],dh
00001B5D  0A2E7332          or ch,[0x3273]
00001B61  2020              and [bx+si],ah
00001B63  2020              and [bx+si],ah
00001B65  206462            and [si+0x62],ah
00001B68  2020              and [bx+si],ah
00001B6A  2220              and ah,[bx+si]
00001B6C  44                inc sp
00001B6D  7269              jc 0x1bd8
00001B6F  7665              jna 0x1bd6
00001B71  3A30              cmp dh,[bx+si]
00001B73  7822              js 0x1b97
00001B75  0A2E7031          or ch,[0x3170]
00001B79  2020              and [bx+si],ah
00001B7B  2020              and [bx+si],ah
00001B7D  206462            and [si+0x62],ah
00001B80  2020              and [bx+si],ah
00001B82  222D              and ch,[di]
00001B84  2D2C20            sub ax,0x202c
00001B87  43                inc bx
00001B88  3A30              cmp dh,[bx+si]
00001B8A  7822              js 0x1bae
00001B8C  0A2E7032          or ch,[0x3270]
00001B90  2020              and [bx+si],ah
00001B92  2020              and [bx+si],ah
00001B94  206462            and [si+0x62],ah
00001B97  2020              and [bx+si],ah
00001B99  222D              and ch,[di]
00001B9B  2D2D2D            sub ax,0x2d2d
00001B9E  2C20              sub al,0x20
00001BA0  48                dec ax
00001BA1  3A30              cmp dh,[bx+si]
00001BA3  7822              js 0x1bc7
00001BA5  0A2E7033          or ch,[0x3370]
00001BA9  2020              and [bx+si],ah
00001BAB  2020              and [bx+si],ah
00001BAD  206462            and [si+0x62],ah
00001BB0  2020              and [bx+si],ah
00001BB2  222D              and ch,[di]
00001BB4  2D2C20            sub ax,0x202c
00001BB7  53                push bx
00001BB8  3A30              cmp dh,[bx+si]
00001BBA  7822              js 0x1bde
00001BBC  0A2E7034          or ch,[0x3470]
00001BC0  2020              and [bx+si],ah
00001BC2  2020              and [bx+si],ah
00001BC4  206462            and [si+0x62],ah
00001BC7  2020              and [bx+si],ah
00001BC9  222D              and ch,[di]
00001BCB  2D2C20            sub ax,0x202c
00001BCE  222C              and ch,[si]
00001BD0  2030              and [bx+si],dh
00001BD2  7830              js 0x1c04
00001BD4  44                inc sp
00001BD5  2C20              sub al,0x20
00001BD7  307830            xor [bx+si+0x30],bh
00001BDA  41                inc cx
00001BDB  2C20              sub al,0x20
00001BDD  300A              xor [bp+si],cl
00001BDF  0A2E6530          or ch,[0x3065]
00001BE3  2020              and [bx+si],ah
00001BE5  2020              and [bx+si],ah
00001BE7  206462            and [si+0x62],ah
00001BEA  2020              and [bx+si],ah
00001BEC  224572            and al,[di+0x72]
00001BEF  726F              jc 0x1c60
00001BF1  723A              jc 0x1c2d
00001BF3  43                inc bx
00001BF4  61                popa
00001BF5  6E                outsb
00001BF6  27                daa
00001BF7  7420              jz 0x1c19
00001BF9  67657420          gs jz 0x1c1d
00001BFD  7061              jo 0x1c60
00001BFF  7261              jc 0x1c62
00001C01  6D                insw
00001C02  657465            gs jz 0x1c6a
00001C05  722E              jc 0x1c35
00001C07  222C              and ch,[si]
00001C09  2030              and [bx+si],dh
00001C0B  0A0A              or cl,[bp+si]
00001C0D  2020              and [bx+si],ah
00001C0F  2020              and [bx+si],ah
00001C11  2020              and [bx+si],ah
00001C13  2020              and [bx+si],ah
00001C15  3B3B              cmp di,[bp+di]
00001C17  3B3B              cmp di,[bp+di]
00001C19  3B3B              cmp di,[bp+di]
00001C1B  3B3B              cmp di,[bp+di]
00001C1D  3B3B              cmp di,[bp+di]
00001C1F  3B3B              cmp di,[bp+di]
00001C21  3B3B              cmp di,[bp+di]
00001C23  3B3B              cmp di,[bp+di]
00001C25  3B3B              cmp di,[bp+di]
00001C27  3B3B              cmp di,[bp+di]
00001C29  3B3B              cmp di,[bp+di]
00001C2B  3B3B              cmp di,[bp+di]
00001C2D  3B3B              cmp di,[bp+di]
00001C2F  3B3B              cmp di,[bp+di]
00001C31  3B3B              cmp di,[bp+di]
00001C33  3B3B              cmp di,[bp+di]
00001C35  3B3B              cmp di,[bp+di]
00001C37  3B3B              cmp di,[bp+di]
00001C39  3B3B              cmp di,[bp+di]
00001C3B  3B3B              cmp di,[bp+di]
00001C3D  3B3B              cmp di,[bp+di]
00001C3F  3B3B              cmp di,[bp+di]
00001C41  3B3B              cmp di,[bp+di]
00001C43  3B3B              cmp di,[bp+di]
00001C45  3B0A              cmp cx,[bp+si]
00001C47  2020              and [bx+si],ah
00001C49  2020              and [bx+si],ah
00001C4B  2020              and [bx+si],ah
00001C4D  2020              and [bx+si],ah
00001C4F  3B20              cmp sp,[bx+si]
00001C51  E383              jcxz 0x1bd6
00001C53  91                xchg ax,cx
00001C54  E383              jcxz 0x1bd9
00001C56  87E3              xchg sp,bx
00001C58  82                db 0x82
00001C59  A3E383            mov [0x83e3],ax
00001C5C  B3E3              mov bl,0xe3
00001C5E  82                db 0x82
00001C5F  B020              mov al,0x20
00001C61  28E3              sub bl,ah
00001C63  8193E381AEE3      adc word [bp+di-0x7e1d],0xe3ae
00001C69  8395E382A1        adc word [di-0x7d1d],byte -0x5f
00001C6E  E382              jcxz 0x1bf2
00001C70  A4                movsb
00001C71  E383              jcxz 0x1bf6
00001C73  AB                stosw
00001C74  E381              jcxz 0x1bf7
00001C76  AF                scasw
00001C77  384BE3            cmp [bp+di-0x1d],cl
00001C7A  8390E382A4        adc word [bx+si-0x7d1d],byte -0x5c
00001C7F  E383              jcxz 0x1c04
00001C81  88E3              mov bl,ah
00001C83  81A8E38199E3      sub word [bx+si-0x7e1d],0xe399
00001C89  82                db 0x82
00001C8A  8B29              mov bp,[bx+di]
00001C8C  0A20              or ah,[bx+si]
00001C8E  2020              and [bx+si],ah
00001C90  2020              and [bx+si],ah
00001C92  2020              and [bx+si],ah
00001C94  203B              and [bp+di],bh
00001C96  3B3B              cmp di,[bp+di]
00001C98  3B3B              cmp di,[bp+di]
00001C9A  3B3B              cmp di,[bp+di]
00001C9C  3B3B              cmp di,[bp+di]
00001C9E  3B3B              cmp di,[bp+di]
00001CA0  3B3B              cmp di,[bp+di]
00001CA2  3B3B              cmp di,[bp+di]
00001CA4  3B3B              cmp di,[bp+di]
00001CA6  3B3B              cmp di,[bp+di]
00001CA8  3B3B              cmp di,[bp+di]
00001CAA  3B3B              cmp di,[bp+di]
00001CAC  3B3B              cmp di,[bp+di]
00001CAE  3B3B              cmp di,[bp+di]
00001CB0  3B3B              cmp di,[bp+di]
00001CB2  3B3B              cmp di,[bp+di]
00001CB4  3B3B              cmp di,[bp+di]
00001CB6  3B3B              cmp di,[bp+di]
00001CB8  3B3B              cmp di,[bp+di]
00001CBA  3B3B              cmp di,[bp+di]
00001CBC  3B3B              cmp di,[bp+di]
00001CBE  3B3B              cmp di,[bp+di]
00001CC0  3B3B              cmp di,[bp+di]
00001CC2  3B3B              cmp di,[bp+di]
00001CC4  3B3B              cmp di,[bp+di]
00001CC6  0A20              or ah,[bx+si]
00001CC8  2020              and [bx+si],ah
00001CCA  2020              and [bx+si],ah
00001CCC  2020              and [bx+si],ah
00001CCE  207469            and [si+0x69],dh
00001CD1  6D                insw
00001CD2  657320            gs jnc 0x1cf5
00001CD5  28424F            sub [bp+si+0x4f],al
00001CD8  4F                dec di
00001CD9  54                push sp
00001CDA  5F                pop di
00001CDB  53                push bx
00001CDC  49                dec cx
00001CDD  5A                pop dx
00001CDE  45                inc bp
00001CDF  202D              and [di],ch
00001CE1  2028              and [bx+si],ch
00001CE3  2420              and al,0x20
00001CE5  2D2024            sub ax,0x2420
00001CE8  2429              and al,0x29
00001CEA  2920              sub [bx+si],sp
00001CEC  646220            bound sp,[fs:bx+si]
00001CEF  307830            xor [bx+si+0x30],bh
00001CF2  3020              xor [bx+si],ah
00001CF4  2020              and [bx+si],ah
00001CF6  2020              and [bx+si],ah
00001CF8  2020              and [bx+si],ah
00001CFA  2020              and [bx+si],ah
00001CFC  2020              and [bx+si],ah
00001CFE  203B              and [bp+di],bh
00001D00  2038              and [bx+si],bh
00001D02  4B                dec bx
00001D03  42                inc dx
00001D04  7974              jns 0x1d7a
00001D06  65                gs
00001D07  0A                db 0x0a
